
tp3-Entregable.elf:     file format elf32-avr

Sections:
Idx Name          Size      VMA       LMA       File off  Algn
  0 .data         0000011e  00800100  00001532  000015c6  2**0
                  CONTENTS, ALLOC, LOAD, DATA
  1 .text         00001532  00000000  00000000  00000094  2**1
                  CONTENTS, ALLOC, LOAD, READONLY, CODE
  2 .bss          00000210  0080021e  0080021e  000016e4  2**0
                  ALLOC
  3 .comment      0000005c  00000000  00000000  000016e4  2**0
                  CONTENTS, READONLY
  4 .note.gnu.avr.deviceinfo 00000040  00000000  00000000  00001740  2**2
                  CONTENTS, READONLY
  5 .debug_aranges 00000148  00000000  00000000  00001780  2**0
                  CONTENTS, READONLY, DEBUGGING
  6 .debug_info   000016f3  00000000  00000000  000018c8  2**0
                  CONTENTS, READONLY, DEBUGGING
  7 .debug_abbrev 00000bd8  00000000  00000000  00002fbb  2**0
                  CONTENTS, READONLY, DEBUGGING
  8 .debug_line   00000eb5  00000000  00000000  00003b93  2**0
                  CONTENTS, READONLY, DEBUGGING
  9 .debug_frame  000003c0  00000000  00000000  00004a48  2**2
                  CONTENTS, READONLY, DEBUGGING
 10 .debug_str    000007ec  00000000  00000000  00004e08  2**0
                  CONTENTS, READONLY, DEBUGGING
 11 .debug_loc    00000bb6  00000000  00000000  000055f4  2**0
                  CONTENTS, READONLY, DEBUGGING
 12 .debug_ranges 000000f8  00000000  00000000  000061aa  2**0
                  CONTENTS, READONLY, DEBUGGING

Disassembly of section .text:

00000000 <__vectors>:
       0:	0c 94 74 02 	jmp	0x4e8	; 0x4e8 <__ctors_end>
       4:	0c 94 91 02 	jmp	0x522	; 0x522 <__bad_interrupt>
       8:	0c 94 91 02 	jmp	0x522	; 0x522 <__bad_interrupt>
       c:	0c 94 91 02 	jmp	0x522	; 0x522 <__bad_interrupt>
      10:	0c 94 91 02 	jmp	0x522	; 0x522 <__bad_interrupt>
      14:	0c 94 91 02 	jmp	0x522	; 0x522 <__bad_interrupt>
      18:	0c 94 91 02 	jmp	0x522	; 0x522 <__bad_interrupt>
      1c:	0c 94 91 02 	jmp	0x522	; 0x522 <__bad_interrupt>
      20:	0c 94 91 02 	jmp	0x522	; 0x522 <__bad_interrupt>
      24:	0c 94 91 02 	jmp	0x522	; 0x522 <__bad_interrupt>
      28:	0c 94 91 02 	jmp	0x522	; 0x522 <__bad_interrupt>
      2c:	0c 94 91 02 	jmp	0x522	; 0x522 <__bad_interrupt>
      30:	0c 94 91 02 	jmp	0x522	; 0x522 <__bad_interrupt>
      34:	0c 94 91 02 	jmp	0x522	; 0x522 <__bad_interrupt>
      38:	0c 94 22 06 	jmp	0xc44	; 0xc44 <__vector_14>
      3c:	0c 94 91 02 	jmp	0x522	; 0x522 <__bad_interrupt>
      40:	0c 94 91 02 	jmp	0x522	; 0x522 <__bad_interrupt>
      44:	0c 94 91 02 	jmp	0x522	; 0x522 <__bad_interrupt>
      48:	0c 94 e2 06 	jmp	0xdc4	; 0xdc4 <__vector_18>
      4c:	0c 94 a0 06 	jmp	0xd40	; 0xd40 <__vector_19>
      50:	0c 94 91 02 	jmp	0x522	; 0x522 <__bad_interrupt>
      54:	0c 94 91 02 	jmp	0x522	; 0x522 <__bad_interrupt>
      58:	0c 94 91 02 	jmp	0x522	; 0x522 <__bad_interrupt>
      5c:	0c 94 91 02 	jmp	0x522	; 0x522 <__bad_interrupt>
      60:	0c 94 91 02 	jmp	0x522	; 0x522 <__bad_interrupt>
      64:	0c 94 91 02 	jmp	0x522	; 0x522 <__bad_interrupt>
      68:	61 05       	cpc	r22, r1
      6a:	66 05       	cpc	r22, r6
      6c:	6b 05       	cpc	r22, r11
      6e:	4f 05       	cpc	r20, r15
      70:	53 05       	cpc	r21, r3
      72:	57 05       	cpc	r21, r7
      74:	5c 05       	cpc	r21, r12

00000076 <__trampolines_end>:
      76:	5b 01       	movw	r10, r22
      78:	30 01       	movw	r6, r0
      7a:	fb 00       	.word	0x00fb	; ????
      7c:	bf 00       	.word	0x00bf	; ????
      7e:	8f 00       	.word	0x008f	; ????
      80:	82 00       	.word	0x0082	; ????

00000082 <songMenu0>:
      82:	43 61 6e 63 69 6f 6e 65 73 3a 20 0d 00              Canciones: ..

0000008f <option4>:
      8f:	2a 20 52 45 53 45 54 3a 20 72 65 69 6e 69 63 69     * RESET: reinici
      9f:	61 20 65 6c 20 73 69 73 74 65 6d 61 20 61 6c 20     a el sistema al 
      af:	65 73 74 61 64 6f 20 69 6e 69 63 69 61 6c 0d 00     estado inicial..

000000bf <option3>:
      bf:	2a 20 4e 55 4d 3a 20 6e 75 6d 65 72 6f 20 64 65     * NUM: numero de
      cf:	20 63 61 6e 63 69 6f 6e 20 61 20 73 65 6c 65 63      cancion a selec
      df:	63 69 6f 6e 61 72 20 64 65 20 6c 61 20 6c 69 73     cionar de la lis
      ef:	74 61 20 5b 31 20 61 20 4e 5d 0d 00                 ta [1 a N]..

000000fb <option2>:
      fb:	2a 20 53 54 4f 50 3a 20 64 65 74 69 65 6e 65 20     * STOP: detiene 
     10b:	6c 61 20 72 65 70 72 6f 64 75 63 63 69 6f 6e 20     la reproduccion 
     11b:	64 65 6c 20 73 6f 6e 69 64 6f 20 65 6e 20 63 75     del sonido en cu
     12b:	72 73 6f 0d 00                                      rso..

00000130 <option1>:
     130:	2a 20 50 4c 41 59 3a 20 72 65 70 72 6f 64 75 63     * PLAY: reproduc
     140:	65 20 6c 61 20 63 61 6e 63 69 6f 6e 20 73 65 6c     e la cancion sel
     150:	65 63 63 69 6f 6e 61 64 61 0d 00                    eccionada..

0000015b <option0>:
     15b:	4d 65 6e 75 3a 0d 00                                Menu:..

00000162 <song_table>:
     162:	7b 04 b9 03 3a 03 a7 02 6c 01                       {...:...l.

0000016c <song4>:
     16c:	5a 6f 72 62 61 32 3a 64 3d 34 2c 6f 3d 35 2c 62     Zorba2:d=4,o=5,b
     17c:	3d 31 32 35 3a 31 36 63 23 36 2c 32 64 36 2c 32     =125:16c#6,2d6,2
     18c:	70 2c 31 36 63 23 36 2c 32 64 36 2c 32 70 2c 33     p,16c#6,2d6,2p,3
     19c:	32 65 36 2c 33 32 64 36 2c 33 32 63 23 36 2c 32     2e6,32d6,32c#6,2
     1ac:	64 36 2c 32 70 2c 31 36 63 23 36 2c 32 64 36 2c     d6,2p,16c#6,2d6,
     1bc:	32 70 2c 31 36 62 2c 32 63 36 2c 32 70 2c 33 32     2p,16b,2c6,2p,32
     1cc:	64 36 2c 33 32 63 36 2c 33 32 62 2c 32 63 36 2c     d6,32c6,32b,2c6,
     1dc:	32 70 2c 31 36 61 23 2c 32 62 2c 70 2c 38 70 2c     2p,16a#,2b,p,8p,
     1ec:	33 32 63 36 2c 33 32 62 2c 33 32 61 2c 33 32 67     32c6,32b,32a,32g
     1fc:	2c 33 32 62 2c 32 61 2c 32 70 2c 33 32 61 2c 33     ,32b,2a,2p,32a,3
     20c:	32 67 2c 33 32 66 23 2c 33 32 61 2c 31 67 2c 31     2g,32f#,32a,1g,1
     21c:	70 2c 38 63 23 36 2c 38 64 36 2c 38 64 36 2c 38     p,8c#6,8d6,8d6,8
     22c:	64 36 2c 38 64 36 2c 38 64 36 2c 38 64 36 2c 38     d6,8d6,8d6,8d6,8
     23c:	64 36 2c 38 63 23 36 2c 38 64 36 2c 38 64 36 2c     d6,8c#6,8d6,8d6,
     24c:	38 64 36 2c 38 64 36 2c 38 64 36 2c 31 36 65 36     8d6,8d6,8d6,16e6
     25c:	2c 31 36 64 36 2c 31 36 63 23 36 2c 31 36 65 36     ,16d6,16c#6,16e6
     26c:	2c 38 63 23 36 2c 38 64 36 2c 38 64 36 2c 38 64     ,8c#6,8d6,8d6,8d
     27c:	36 2c 38 64 36 2c 38 64 36 2c 38 64 36 2c 38 64     6,8d6,8d6,8d6,8d
     28c:	36 2c 38 63 23 36 2c 38 64 36 2c 38 64 36 2c 38     6,8c#6,8d6,8d6,8
     29c:	64 36 2c 38 64 36 2c 38 64 36 00                    d6,8d6,8d6.

000002a7 <song3>:
     2a7:	58 66 69 6c 65 73 3a 64 3d 34 2c 6f 3d 35 2c 62     Xfiles:d=4,o=5,b
     2b7:	3d 31 32 35 3a 65 2c 62 2c 61 2c 62 2c 64 36 2c     =125:e,b,a,b,d6,
     2c7:	32 62 2e 2c 31 70 2c 65 2c 62 2c 61 2c 62 2c 65     2b.,1p,e,b,a,b,e
     2d7:	36 2c 32 62 2e 2c 31 70 2c 67 36 2c 66 23 36 2c     6,2b.,1p,g6,f#6,
     2e7:	65 36 2c 64 36 2c 65 36 2c 32 62 2e 2c 31 70 2c     e6,d6,e6,2b.,1p,
     2f7:	67 36 2c 66 23 36 2c 65 36 2c 64 36 2c 66 23 36     g6,f#6,e6,d6,f#6
     307:	2c 32 62 2e 2c 31 70 2c 65 2c 62 2c 61 2c 62 2c     ,2b.,1p,e,b,a,b,
     317:	64 36 2c 32 62 2e 2c 31 70 2c 65 2c 62 2c 61 2c     d6,2b.,1p,e,b,a,
     327:	62 2c 65 36 2c 32 62 2e 2c 31 70 2c 65 36 2c 32     b,e6,2b.,1p,e6,2
     337:	62 2e 00                                            b..

0000033a <song2>:
     33a:	6b 69 6c 6c 69 6e 67 20 6d 65 20 73 6f 66 74 6c     killing me softl
     34a:	79 3a 64 3d 34 2c 6f 3d 35 2c 62 3d 39 30 3a 70     y:d=4,o=5,b=90:p
     35a:	2c 38 65 2c 66 2c 67 2c 38 61 2c 61 2c 38 67 2c     ,8e,f,g,8a,a,8g,
     36a:	64 2c 67 2e 2c 70 2c 38 70 2c 38 61 2c 67 2c 38     d,g.,p,8p,8a,g,8
     37a:	66 2c 38 65 2c 38 65 2c 38 66 2c 32 63 2c 70 2c     f,8e,8e,8f,2c,p,
     38a:	38 65 2c 66 2c 67 2c 38 61 2c 61 2c 38 67 2c 61     8e,f,g,8a,a,8g,a
     39a:	2c 62 2c 38 62 2c 38 63 36 2c 38 62 2c 31 36 61     ,b,8b,8c6,8b,16a
     3aa:	2c 38 67 2c 31 36 61 2c 32 61 2c 32 61 2e 00        ,8g,16a,2a,2a..

000003b9 <song1>:
     3b9:	49 6e 64 69 61 6e 61 3a 64 3d 34 2c 6f 3d 35 2c     Indiana:d=4,o=5,
     3c9:	62 3d 32 35 30 3a 65 2c 38 70 2c 38 66 2c 38 67     b=250:e,8p,8f,8g
     3d9:	2c 38 70 2c 31 63 36 2c 38 70 2e 2c 64 2c 38 70     ,8p,1c6,8p.,d,8p
     3e9:	2c 38 65 2c 31 66 2c 70 2e 2c 67 2c 38 70 2c 38     ,8e,1f,p.,g,8p,8
     3f9:	61 2c 38 62 2c 38 70 2c 31 66 36 2c 70 2c 61 2c     a,8b,8p,1f6,p,a,
     409:	38 70 2c 38 62 2c 32 63 36 2c 32 64 36 2c 32 65     8p,8b,2c6,2d6,2e
     419:	36 2c 65 2c 38 70 2c 38 66 2c 38 67 2c 38 70 2c     6,e,8p,8f,8g,8p,
     429:	31 63 36 2c 70 2c 64 36 2c 38 70 2c 38 65 36 2c     1c6,p,d6,8p,8e6,
     439:	31 66 2e 36 2c 67 2c 38 70 2c 38 67 2c 65 2e 36     1f.6,g,8p,8g,e.6
     449:	2c 38 70 2c 64 36 2c 38 70 2c 38 67 2c 65 2e 36     ,8p,d6,8p,8g,e.6
     459:	2c 38 70 2c 64 36 2c 38 70 2c 38 67 2c 66 2e 36     ,8p,d6,8p,8g,f.6
     469:	2c 38 70 2c 65 36 2c 38 70 2c 38 64 36 2c 32 63     ,8p,e6,8p,8d6,2c
     479:	36 00                                               6.

0000047b <song0>:
     47b:	54 68 65 53 69 6d 70 73 6f 6e 73 3a 64 3d 34 2c     TheSimpsons:d=4,
     48b:	6f 3d 35 2c 62 3d 31 36 30 3a 63 2e 36 2c 65 36     o=5,b=160:c.6,e6
     49b:	2c 66 23 36 2c 38 61 36 2c 67 2e 36 2c 65 36 2c     ,f#6,8a6,g.6,e6,
     4ab:	63 36 2c 38 61 2c 38 66 23 2c 38 66 23 2c 38 66     c6,8a,8f#,8f#,8f
     4bb:	23 2c 32 67 2c 38 70 2c 38 70 2c 38 66 23 2c 38     #,2g,8p,8p,8f#,8
     4cb:	66 23 2c 38 66 23 2c 38 67 2c 61 23 2e 2c 38 63     f#,8f#,8g,a#.,8c
     4db:	36 2c 38 63 36 2c 38 63 36 2c 63 36 00              6,8c6,8c6,c6.

000004e8 <__ctors_end>:
     4e8:	11 24       	eor	r1, r1
     4ea:	1f be       	out	0x3f, r1	; 63
     4ec:	cf ef       	ldi	r28, 0xFF	; 255
     4ee:	d8 e0       	ldi	r29, 0x08	; 8
     4f0:	de bf       	out	0x3e, r29	; 62
     4f2:	cd bf       	out	0x3d, r28	; 61

000004f4 <__do_copy_data>:
     4f4:	12 e0       	ldi	r17, 0x02	; 2
     4f6:	a0 e0       	ldi	r26, 0x00	; 0
     4f8:	b1 e0       	ldi	r27, 0x01	; 1
     4fa:	e2 e3       	ldi	r30, 0x32	; 50
     4fc:	f5 e1       	ldi	r31, 0x15	; 21
     4fe:	02 c0       	rjmp	.+4      	; 0x504 <__do_copy_data+0x10>
     500:	05 90       	lpm	r0, Z+
     502:	0d 92       	st	X+, r0
     504:	ae 31       	cpi	r26, 0x1E	; 30
     506:	b1 07       	cpc	r27, r17
     508:	d9 f7       	brne	.-10     	; 0x500 <__do_copy_data+0xc>

0000050a <__do_clear_bss>:
     50a:	24 e0       	ldi	r18, 0x04	; 4
     50c:	ae e1       	ldi	r26, 0x1E	; 30
     50e:	b2 e0       	ldi	r27, 0x02	; 2
     510:	01 c0       	rjmp	.+2      	; 0x514 <.do_clear_bss_start>

00000512 <.do_clear_bss_loop>:
     512:	1d 92       	st	X+, r1

00000514 <.do_clear_bss_start>:
     514:	ae 32       	cpi	r26, 0x2E	; 46
     516:	b2 07       	cpc	r27, r18
     518:	e1 f7       	brne	.-8      	; 0x512 <.do_clear_bss_loop>
     51a:	0e 94 9e 02 	call	0x53c	; 0x53c <main>
     51e:	0c 94 97 0a 	jmp	0x152e	; 0x152e <_exit>

00000522 <__bad_interrupt>:
     522:	0c 94 00 00 	jmp	0	; 0x0 <__vectors>

00000526 <System_reset>:
				: "r0"
		);
	}
	else
	{
		__asm__ __volatile__ (
     526:	98 e0       	ldi	r25, 0x08	; 8
     528:	88 e1       	ldi	r24, 0x18	; 24
     52a:	0f b6       	in	r0, 0x3f	; 63
     52c:	f8 94       	cli
     52e:	a8 95       	wdr
     530:	80 93 60 00 	sts	0x0060, r24	; 0x800060 <__TEXT_REGION_LENGTH__+0x7f8060>
     534:	0f be       	out	0x3f, r0	; 63
     536:	90 93 60 00 	sts	0x0060, r25	; 0x800060 <__TEXT_REGION_LENGTH__+0x7f8060>
     53a:	08 95       	ret

0000053c <main>:
	wdt_enable(WDTO_15MS); 
}


void main(void){
	UART_Init(BR9600); // Inicia la UART con una baud rate de 9600
     53c:	87 e6       	ldi	r24, 0x67	; 103
     53e:	0e 94 48 06 	call	0xc90	; 0xc90 <UART_Init>
	MENU_Show_Menu(); // Muestra las opciones de menu
     542:	0e 94 b1 02 	call	0x562	; 0x562 <MENU_Show_Menu>
	SEOS_Init_Timer(); // Inicia las interrupciones de timer
     546:	0e 94 fc 05 	call	0xbf8	; 0xbf8 <SEOS_Init_Timer>
	#else
		//round up by default
		__ticks_dc = (uint32_t)(ceil(fabs(__tmp)));
	#endif

	__builtin_avr_delay_cycles(__ticks_dc);
     54a:	2f ef       	ldi	r18, 0xFF	; 255
     54c:	81 ee       	ldi	r24, 0xE1	; 225
     54e:	94 e0       	ldi	r25, 0x04	; 4
     550:	21 50       	subi	r18, 0x01	; 1
     552:	80 40       	sbci	r24, 0x00	; 0
     554:	90 40       	sbci	r25, 0x00	; 0
     556:	e1 f7       	brne	.-8      	; 0x550 <main+0x14>
     558:	00 c0       	rjmp	.+0      	; 0x55a <main+0x1e>
     55a:	00 00       	nop
	_delay_ms(100); // Delay de 100 ms para esperar a que se termine de transmitir las canciones
	//MENU_Show_Canciones(); // Muestra las canciones
	
	while (1){
		SEOS_Dispatch_Tasks(); // Realiza las tareas programadas en una interrupcion
     55c:	0e 94 17 06 	call	0xc2e	; 0xc2e <SEOS_Dispatch_Tasks>
     560:	fd cf       	rjmp	.-6      	; 0x55c <main+0x20>

00000562 <MENU_Show_Menu>:
/*
	MENU_Show_Menu:
		Esta funcion muestra cada una de las opciones del menu leyendolas desde la memoria ROM.
*/
void MENU_Show_Menu(void)
{
     562:	af 92       	push	r10
     564:	bf 92       	push	r11
     566:	cf 92       	push	r12
     568:	df 92       	push	r13
     56a:	ef 92       	push	r14
     56c:	ff 92       	push	r15
     56e:	1f 93       	push	r17
     570:	cf 93       	push	r28
     572:	df 93       	push	r29
     574:	cd b7       	in	r28, 0x3d	; 61
     576:	de b7       	in	r29, 0x3e	; 62
	for (uint8_t i = 0; i <= 5; i ++) {
		char tempBuffer[option_length[i]];
		strcpy_P(tempBuffer, (char *)pgm_read_word(&(option_table[i])));
		UART_Write_String_To_Buffer(tempBuffer);
	}
}
     578:	cd b6       	in	r12, 0x3d	; 61
     57a:	de b6       	in	r13, 0x3e	; 62
	MENU_Show_Menu:
		Esta funcion muestra cada una de las opciones del menu leyendolas desde la memoria ROM.
*/
void MENU_Show_Menu(void)
{
	for (uint8_t i = 0; i <= 5; i ++) {
     57c:	10 e0       	ldi	r17, 0x00	; 0
     57e:	26 c0       	rjmp	.+76     	; 0x5cc <MENU_Show_Menu+0x6a>
     580:	ed b6       	in	r14, 0x3d	; 61
     582:	fe b6       	in	r15, 0x3e	; 62
		char tempBuffer[option_length[i]];
     584:	e1 2f       	mov	r30, r17
     586:	f0 e0       	ldi	r31, 0x00	; 0
     588:	df 01       	movw	r26, r30
     58a:	a1 55       	subi	r26, 0x51	; 81
     58c:	be 4f       	sbci	r27, 0xFE	; 254
     58e:	8c 91       	ld	r24, X
     590:	2d b7       	in	r18, 0x3d	; 61
     592:	3e b7       	in	r19, 0x3e	; 62
     594:	28 1b       	sub	r18, r24
     596:	31 09       	sbc	r19, r1
     598:	0f b6       	in	r0, 0x3f	; 63
     59a:	f8 94       	cli
     59c:	3e bf       	out	0x3e, r19	; 62
     59e:	0f be       	out	0x3f, r0	; 63
     5a0:	2d bf       	out	0x3d, r18	; 61
     5a2:	8d b7       	in	r24, 0x3d	; 61
     5a4:	9e b7       	in	r25, 0x3e	; 62
     5a6:	01 96       	adiw	r24, 0x01	; 1
     5a8:	5c 01       	movw	r10, r24
		strcpy_P(tempBuffer, (char *)pgm_read_word(&(option_table[i])));
     5aa:	ee 0f       	add	r30, r30
     5ac:	ff 1f       	adc	r31, r31
     5ae:	ea 58       	subi	r30, 0x8A	; 138
     5b0:	ff 4f       	sbci	r31, 0xFF	; 255
     5b2:	65 91       	lpm	r22, Z+
     5b4:	74 91       	lpm	r23, Z
     5b6:	0e 94 9e 07 	call	0xf3c	; 0xf3c <strcpy_P>
		UART_Write_String_To_Buffer(tempBuffer);
     5ba:	c5 01       	movw	r24, r10
     5bc:	0e 94 6c 06 	call	0xcd8	; 0xcd8 <UART_Write_String_To_Buffer>
     5c0:	0f b6       	in	r0, 0x3f	; 63
     5c2:	f8 94       	cli
     5c4:	fe be       	out	0x3e, r15	; 62
     5c6:	0f be       	out	0x3f, r0	; 63
     5c8:	ed be       	out	0x3d, r14	; 61
	MENU_Show_Menu:
		Esta funcion muestra cada una de las opciones del menu leyendolas desde la memoria ROM.
*/
void MENU_Show_Menu(void)
{
	for (uint8_t i = 0; i <= 5; i ++) {
     5ca:	1f 5f       	subi	r17, 0xFF	; 255
     5cc:	16 30       	cpi	r17, 0x06	; 6
     5ce:	c0 f2       	brcs	.-80     	; 0x580 <MENU_Show_Menu+0x1e>
		char tempBuffer[option_length[i]];
		strcpy_P(tempBuffer, (char *)pgm_read_word(&(option_table[i])));
		UART_Write_String_To_Buffer(tempBuffer);
	}
}
     5d0:	0f b6       	in	r0, 0x3f	; 63
     5d2:	f8 94       	cli
     5d4:	de be       	out	0x3e, r13	; 62
     5d6:	0f be       	out	0x3f, r0	; 63
     5d8:	cd be       	out	0x3d, r12	; 61
     5da:	df 91       	pop	r29
     5dc:	cf 91       	pop	r28
     5de:	1f 91       	pop	r17
     5e0:	ff 90       	pop	r15
     5e2:	ef 90       	pop	r14
     5e4:	df 90       	pop	r13
     5e6:	cf 90       	pop	r12
     5e8:	bf 90       	pop	r11
     5ea:	af 90       	pop	r10
     5ec:	08 95       	ret

000005ee <MENU_Compare_Command>:
		Recibe dos strings por parametro y realiza una comparacion entre ellas, retorna 1 si son iguales.
		Adicionalmente recibe un parametro booleano is_num que indica si las strings a comparar corresponden a la opcion NUM de las opciones de menu,
		en cuyo caso se realiza una comparacion del str1 con valores numericos, retorna 1 si son todos numeros y asigna el valor de RX_Buffer a cancion_elegida.
*/
uint8_t MENU_Compare_Command(const char* str1, const char* str2, uint8_t is_num)
{
     5ee:	fc 01       	movw	r30, r24
	uint8_t i = 0, is_integer = 1;
	if (!is_num) {
     5f0:	44 23       	and	r20, r20
     5f2:	39 f0       	breq	.+14     	; 0x602 <MENU_Compare_Command+0x14>
     5f4:	20 e0       	ldi	r18, 0x00	; 0
     5f6:	30 e0       	ldi	r19, 0x00	; 0
     5f8:	23 c0       	rjmp	.+70     	; 0x640 <MENU_Compare_Command+0x52>
		while (str1[i] != '\0' && str2[i] != '\0') {
			if (str1[i] != str2[i])
     5fa:	95 13       	cpse	r25, r21
     5fc:	2d c0       	rjmp	.+90     	; 0x658 <MENU_Compare_Command+0x6a>
			return 0;
			i++;
     5fe:	4f 5f       	subi	r20, 0xFF	; 255
     600:	01 c0       	rjmp	.+2      	; 0x604 <MENU_Compare_Command+0x16>
     602:	40 e0       	ldi	r20, 0x00	; 0
*/
uint8_t MENU_Compare_Command(const char* str1, const char* str2, uint8_t is_num)
{
	uint8_t i = 0, is_integer = 1;
	if (!is_num) {
		while (str1[i] != '\0' && str2[i] != '\0') {
     604:	24 2f       	mov	r18, r20
     606:	30 e0       	ldi	r19, 0x00	; 0
     608:	df 01       	movw	r26, r30
     60a:	a2 0f       	add	r26, r18
     60c:	b3 1f       	adc	r27, r19
     60e:	9c 91       	ld	r25, X
     610:	99 23       	and	r25, r25
     612:	31 f0       	breq	.+12     	; 0x620 <MENU_Compare_Command+0x32>
     614:	db 01       	movw	r26, r22
     616:	a2 0f       	add	r26, r18
     618:	b3 1f       	adc	r27, r19
     61a:	5c 91       	ld	r21, X
     61c:	51 11       	cpse	r21, r1
     61e:	ed cf       	rjmp	.-38     	; 0x5fa <MENU_Compare_Command+0xc>
			if (str1[i] != str2[i])
			return 0;
			i++;
		}
		return (str1[i] == '\0' && str2[i] == '\0');
     620:	91 11       	cpse	r25, r1
     622:	08 c0       	rjmp	.+16     	; 0x634 <MENU_Compare_Command+0x46>
     624:	fb 01       	movw	r30, r22
     626:	e2 0f       	add	r30, r18
     628:	f3 1f       	adc	r31, r19
     62a:	80 81       	ld	r24, Z
     62c:	88 23       	and	r24, r24
     62e:	21 f0       	breq	.+8      	; 0x638 <MENU_Compare_Command+0x4a>
     630:	80 e0       	ldi	r24, 0x00	; 0
     632:	08 95       	ret
     634:	80 e0       	ldi	r24, 0x00	; 0
     636:	08 95       	ret
     638:	81 e0       	ldi	r24, 0x01	; 1
     63a:	08 95       	ret
	} else {
		  for (int i = 0; str1[i] != '\0'; i++) {
     63c:	2f 5f       	subi	r18, 0xFF	; 255
     63e:	3f 4f       	sbci	r19, 0xFF	; 255
     640:	df 01       	movw	r26, r30
     642:	a2 0f       	add	r26, r18
     644:	b3 1f       	adc	r27, r19
     646:	8c 91       	ld	r24, X
     648:	81 11       	cpse	r24, r1
     64a:	f8 cf       	rjmp	.-16     	; 0x63c <MENU_Compare_Command+0x4e>
     64c:	cf 01       	movw	r24, r30
			  if (str1[i] < '0' && str1[i] > '9') {
				  is_integer = 0;
				  break;
			  }
		  }
		  if (is_integer) cancion_elegida = atoi(str1);
     64e:	0e 94 80 07 	call	0xf00	; 0xf00 <atoi>
     652:	80 93 1e 02 	sts	0x021E, r24	; 0x80021e <__data_end>
	}
}
     656:	08 95       	ret
{
	uint8_t i = 0, is_integer = 1;
	if (!is_num) {
		while (str1[i] != '\0' && str2[i] != '\0') {
			if (str1[i] != str2[i])
			return 0;
     658:	80 e0       	ldi	r24, 0x00	; 0
				  break;
			  }
		  }
		  if (is_integer) cancion_elegida = atoi(str1);
	}
}
     65a:	08 95       	ret

0000065c <MENU_Command_Update>:
 /*
	MENU_Command_Update:
		Recibe por parametro el buffer RX y compara la informacion recibida con las opciones correspondientes del menu.
 */
void MENU_Command_Update(const char* RX_buffer)
{
     65c:	cf 93       	push	r28
     65e:	df 93       	push	r29
     660:	ec 01       	movw	r28, r24
	if (MENU_Compare_Command(RX_buffer, "PLAY", 0))
     662:	40 e0       	ldi	r20, 0x00	; 0
     664:	60 e0       	ldi	r22, 0x00	; 0
     666:	71 e0       	ldi	r23, 0x01	; 1
     668:	0e 94 f7 02 	call	0x5ee	; 0x5ee <MENU_Compare_Command>
     66c:	88 23       	and	r24, r24
     66e:	21 f0       	breq	.+8      	; 0x678 <MENU_Command_Update+0x1c>
	SystemState = ESTADO_PLAY;
     670:	81 e0       	ldi	r24, 0x01	; 1
     672:	80 93 1f 02 	sts	0x021F, r24	; 0x80021f <SystemState>
     676:	30 c0       	rjmp	.+96     	; 0x6d8 <MENU_Command_Update+0x7c>
	else if (MENU_Compare_Command(RX_buffer, "STOP", 0)) 
     678:	40 e0       	ldi	r20, 0x00	; 0
     67a:	65 e0       	ldi	r22, 0x05	; 5
     67c:	71 e0       	ldi	r23, 0x01	; 1
     67e:	ce 01       	movw	r24, r28
     680:	0e 94 f7 02 	call	0x5ee	; 0x5ee <MENU_Compare_Command>
     684:	88 23       	and	r24, r24
     686:	21 f0       	breq	.+8      	; 0x690 <MENU_Command_Update+0x34>
	SystemState = ESTADO_STOP;
     688:	82 e0       	ldi	r24, 0x02	; 2
     68a:	80 93 1f 02 	sts	0x021F, r24	; 0x80021f <SystemState>
     68e:	24 c0       	rjmp	.+72     	; 0x6d8 <MENU_Command_Update+0x7c>
	else if (MENU_Compare_Command(RX_buffer, "RESET", 0))
     690:	40 e0       	ldi	r20, 0x00	; 0
     692:	6a e0       	ldi	r22, 0x0A	; 10
     694:	71 e0       	ldi	r23, 0x01	; 1
     696:	ce 01       	movw	r24, r28
     698:	0e 94 f7 02 	call	0x5ee	; 0x5ee <MENU_Compare_Command>
     69c:	88 23       	and	r24, r24
     69e:	21 f0       	breq	.+8      	; 0x6a8 <MENU_Command_Update+0x4c>
	SystemState = ESTADO_RESET;
     6a0:	84 e0       	ldi	r24, 0x04	; 4
     6a2:	80 93 1f 02 	sts	0x021F, r24	; 0x80021f <SystemState>
     6a6:	18 c0       	rjmp	.+48     	; 0x6d8 <MENU_Command_Update+0x7c>
	else if (MENU_Compare_Command(RX_buffer, "NUM ", 1) && (1 <= cancion_elegida) && (cancion_elegida <= 6)) // Aqui para entrar al ESTADO_PLAY se necesita que la cancion_elegida este comprendida entre [1,6]
     6a8:	41 e0       	ldi	r20, 0x01	; 1
     6aa:	60 e1       	ldi	r22, 0x10	; 16
     6ac:	71 e0       	ldi	r23, 0x01	; 1
     6ae:	ce 01       	movw	r24, r28
     6b0:	0e 94 f7 02 	call	0x5ee	; 0x5ee <MENU_Compare_Command>
     6b4:	88 23       	and	r24, r24
     6b6:	51 f0       	breq	.+20     	; 0x6cc <MENU_Command_Update+0x70>
     6b8:	80 91 1e 02 	lds	r24, 0x021E	; 0x80021e <__data_end>
     6bc:	88 23       	and	r24, r24
     6be:	31 f0       	breq	.+12     	; 0x6cc <MENU_Command_Update+0x70>
     6c0:	87 30       	cpi	r24, 0x07	; 7
     6c2:	20 f4       	brcc	.+8      	; 0x6cc <MENU_Command_Update+0x70>
	SystemState = ESTADO_NUM;																											
     6c4:	83 e0       	ldi	r24, 0x03	; 3
     6c6:	80 93 1f 02 	sts	0x021F, r24	; 0x80021f <SystemState>
     6ca:	06 c0       	rjmp	.+12     	; 0x6d8 <MENU_Command_Update+0x7c>
	else {
		UART_Write_String_To_Buffer("Comando no valido.\r\n");
     6cc:	85 e1       	ldi	r24, 0x15	; 21
     6ce:	91 e0       	ldi	r25, 0x01	; 1
     6d0:	0e 94 6c 06 	call	0xcd8	; 0xcd8 <UART_Write_String_To_Buffer>
		cancion_elegida = 0;
     6d4:	10 92 1e 02 	sts	0x021E, r1	; 0x80021e <__data_end>
	}
}
     6d8:	df 91       	pop	r29
     6da:	cf 91       	pop	r28
     6dc:	08 95       	ret

000006de <MENU_Perform_Task>:
/*
	MENU_Perfom_Task:
		Esta funcion trabaja como una maquina de estados, dependiendo de la variable SystemState ejecuta las acciones correspondientes a cada caso.
*/
void MENU_Perform_Task()
{
     6de:	0f 93       	push	r16
     6e0:	1f 93       	push	r17
     6e2:	cf 93       	push	r28
     6e4:	df 93       	push	r29
     6e6:	cd b7       	in	r28, 0x3d	; 61
     6e8:	de b7       	in	r29, 0x3e	; 62
     6ea:	6e 97       	sbiw	r28, 0x1e	; 30
     6ec:	0f b6       	in	r0, 0x3f	; 63
     6ee:	f8 94       	cli
     6f0:	de bf       	out	0x3e, r29	; 62
     6f2:	0f be       	out	0x3f, r0	; 63
     6f4:	cd bf       	out	0x3d, r28	; 61
	switch (SystemState)
     6f6:	80 91 1f 02 	lds	r24, 0x021F	; 0x80021f <SystemState>
     6fa:	82 30       	cpi	r24, 0x02	; 2
     6fc:	99 f1       	breq	.+102    	; 0x764 <MENU_Perform_Task+0x86>
     6fe:	18 f4       	brcc	.+6      	; 0x706 <MENU_Perform_Task+0x28>
     700:	81 30       	cpi	r24, 0x01	; 1
     702:	39 f0       	breq	.+14     	; 0x712 <MENU_Perform_Task+0x34>
     704:	5f c0       	rjmp	.+190    	; 0x7c4 <MENU_Perform_Task+0xe6>
     706:	83 30       	cpi	r24, 0x03	; 3
     708:	c1 f1       	breq	.+112    	; 0x77a <MENU_Perform_Task+0x9c>
     70a:	84 30       	cpi	r24, 0x04	; 4
     70c:	09 f4       	brne	.+2      	; 0x710 <MENU_Perform_Task+0x32>
     70e:	51 c0       	rjmp	.+162    	; 0x7b2 <MENU_Perform_Task+0xd4>
     710:	59 c0       	rjmp	.+178    	; 0x7c4 <MENU_Perform_Task+0xe6>
			ESTADO_PLAY: Comprueba si se ha seleccionado una cancion, si es asi la reproduce.
		*/
		case ESTADO_PLAY:
		{
			char status[20];
			if ((cancion_elegida >= 1) && (cancion_elegida <= 6)) {
     712:	80 91 1e 02 	lds	r24, 0x021E	; 0x80021e <__data_end>
     716:	9f ef       	ldi	r25, 0xFF	; 255
     718:	98 0f       	add	r25, r24
     71a:	96 30       	cpi	r25, 0x06	; 6
     71c:	d8 f4       	brcc	.+54     	; 0x754 <MENU_Perform_Task+0x76>
				sprintf(status, "	Reproduciendo	--> %d \r", cancion_elegida);
     71e:	1f 92       	push	r1
     720:	8f 93       	push	r24
     722:	8a e2       	ldi	r24, 0x2A	; 42
     724:	91 e0       	ldi	r25, 0x01	; 1
     726:	9f 93       	push	r25
     728:	8f 93       	push	r24
     72a:	8e 01       	movw	r16, r28
     72c:	0f 5f       	subi	r16, 0xFF	; 255
     72e:	1f 4f       	sbci	r17, 0xFF	; 255
     730:	1f 93       	push	r17
     732:	0f 93       	push	r16
     734:	0e 94 ad 07 	call	0xf5a	; 0xf5a <sprintf>
				UART_Write_String_To_Buffer(status);
     738:	c8 01       	movw	r24, r16
     73a:	0e 94 6c 06 	call	0xcd8	; 0xcd8 <UART_Write_String_To_Buffer>
				RTTTL_play_song(cancion_elegida);	
     73e:	80 91 1e 02 	lds	r24, 0x021E	; 0x80021e <__data_end>
     742:	0e 94 28 04 	call	0x850	; 0x850 <RTTTL_play_song>
     746:	0f 90       	pop	r0
     748:	0f 90       	pop	r0
     74a:	0f 90       	pop	r0
     74c:	0f 90       	pop	r0
     74e:	0f 90       	pop	r0
     750:	0f 90       	pop	r0
     752:	04 c0       	rjmp	.+8      	; 0x75c <MENU_Perform_Task+0x7e>
			}
			else {
				UART_Write_String_To_Buffer("\n	Error: No se ha seleccionado una cancion... \n\r");
     754:	82 e4       	ldi	r24, 0x42	; 66
     756:	91 e0       	ldi	r25, 0x01	; 1
     758:	0e 94 6c 06 	call	0xcd8	; 0xcd8 <UART_Write_String_To_Buffer>
			}
			SystemState = -1;
     75c:	8f ef       	ldi	r24, 0xFF	; 255
     75e:	80 93 1f 02 	sts	0x021F, r24	; 0x80021f <SystemState>
     762:	30 c0       	rjmp	.+96     	; 0x7c4 <MENU_Perform_Task+0xe6>
			ESTADO_STOP: La cancion originalmente se detiene desde la interrupcion RX, debido a lo explicado en la seccion COMPLETAR del informe. Este estado
			envia un string de cancion detenida y setea el valor de flag_stop del modulo RTTTL en cero. 
		*/
		case ESTADO_STOP:
		{
			UART_Write_String_To_Buffer("Cancion detenida\r");
     764:	83 e7       	ldi	r24, 0x73	; 115
     766:	91 e0       	ldi	r25, 0x01	; 1
     768:	0e 94 6c 06 	call	0xcd8	; 0xcd8 <UART_Write_String_To_Buffer>
			RTTTL_set_flag_stop(0);
     76c:	80 e0       	ldi	r24, 0x00	; 0
     76e:	0e 94 ed 03 	call	0x7da	; 0x7da <RTTTL_set_flag_stop>
			SystemState = -1;
     772:	8f ef       	ldi	r24, 0xFF	; 255
     774:	80 93 1f 02 	sts	0x021F, r24	; 0x80021f <SystemState>
			break;
     778:	25 c0       	rjmp	.+74     	; 0x7c4 <MENU_Perform_Task+0xe6>
			ESTADO_PLAY: Transmite un string de estatus donde se muestra la cancion elegida.
		*/
		case ESTADO_NUM:
		{
			char status[30];
			sprintf(status, "	Cancion elegida	--> %d \r", cancion_elegida);
     77a:	80 91 1e 02 	lds	r24, 0x021E	; 0x80021e <__data_end>
     77e:	1f 92       	push	r1
     780:	8f 93       	push	r24
     782:	85 e8       	ldi	r24, 0x85	; 133
     784:	91 e0       	ldi	r25, 0x01	; 1
     786:	9f 93       	push	r25
     788:	8f 93       	push	r24
     78a:	8e 01       	movw	r16, r28
     78c:	0f 5f       	subi	r16, 0xFF	; 255
     78e:	1f 4f       	sbci	r17, 0xFF	; 255
     790:	1f 93       	push	r17
     792:	0f 93       	push	r16
     794:	0e 94 ad 07 	call	0xf5a	; 0xf5a <sprintf>
			UART_Write_String_To_Buffer(status);
     798:	c8 01       	movw	r24, r16
     79a:	0e 94 6c 06 	call	0xcd8	; 0xcd8 <UART_Write_String_To_Buffer>
			SystemState = -1;
     79e:	8f ef       	ldi	r24, 0xFF	; 255
     7a0:	80 93 1f 02 	sts	0x021F, r24	; 0x80021f <SystemState>
     7a4:	0f 90       	pop	r0
     7a6:	0f 90       	pop	r0
     7a8:	0f 90       	pop	r0
     7aa:	0f 90       	pop	r0
     7ac:	0f 90       	pop	r0
     7ae:	0f 90       	pop	r0
     7b0:	09 c0       	rjmp	.+18     	; 0x7c4 <MENU_Perform_Task+0xe6>
		/*
			ESTADO_RESET: Transmite un string de estatus y luego llama a la funcion System_reset para reiniciar el sistema.
		*/
		case ESTADO_RESET:
		{
			UART_Write_String_To_Buffer("Reseteando ...\r");
     7b2:	8f e9       	ldi	r24, 0x9F	; 159
     7b4:	91 e0       	ldi	r25, 0x01	; 1
     7b6:	0e 94 6c 06 	call	0xcd8	; 0xcd8 <UART_Write_String_To_Buffer>
			SystemState = -1;
     7ba:	8f ef       	ldi	r24, 0xFF	; 255
     7bc:	80 93 1f 02 	sts	0x021F, r24	; 0x80021f <SystemState>
			System_reset();
     7c0:	0e 94 93 02 	call	0x526	; 0x526 <System_reset>
			break;
		}
	}
     7c4:	6e 96       	adiw	r28, 0x1e	; 30
     7c6:	0f b6       	in	r0, 0x3f	; 63
     7c8:	f8 94       	cli
     7ca:	de bf       	out	0x3e, r29	; 62
     7cc:	0f be       	out	0x3f, r0	; 63
     7ce:	cd bf       	out	0x3d, r28	; 61
     7d0:	df 91       	pop	r29
     7d2:	cf 91       	pop	r28
     7d4:	1f 91       	pop	r17
     7d6:	0f 91       	pop	r16
     7d8:	08 95       	ret

000007da <RTTTL_set_flag_stop>:

/*
	RTTTL_get_song_name:
		Recibe por parametro un valor numerico cancion_elegida y lee el nombre de dicha cancion.
*/
void RTTTL_get_song_name(uint8_t cancion_elegida) {
     7da:	80 93 20 02 	sts	0x0220, r24	; 0x800220 <FLAG_stop>
     7de:	08 95       	ret

000007e0 <RTTTL_sound>:
     7e0:	40 91 21 02 	lds	r20, 0x0221	; 0x800221 <sound_playing>
     7e4:	50 91 22 02 	lds	r21, 0x0222	; 0x800222 <sound_playing+0x1>
     7e8:	45 2b       	or	r20, r21
     7ea:	d1 f7       	brne	.-12     	; 0x7e0 <RTTTL_sound>
     7ec:	70 93 2c 02 	sts	0x022C, r23	; 0x80022c <duration_timer+0x1>
     7f0:	60 93 2b 02 	sts	0x022B, r22	; 0x80022b <duration_timer>
     7f4:	e0 e8       	ldi	r30, 0x80	; 128
     7f6:	f0 e0       	ldi	r31, 0x00	; 0
     7f8:	20 81       	ld	r18, Z
     7fa:	20 64       	ori	r18, 0x40	; 64
     7fc:	20 83       	st	Z, r18
     7fe:	9c 01       	movw	r18, r24
     800:	40 e0       	ldi	r20, 0x00	; 0
     802:	50 e0       	ldi	r21, 0x00	; 0
     804:	60 e0       	ldi	r22, 0x00	; 0
     806:	72 e1       	ldi	r23, 0x12	; 18
     808:	8a e7       	ldi	r24, 0x7A	; 122
     80a:	90 e0       	ldi	r25, 0x00	; 0
     80c:	0e 94 39 07 	call	0xe72	; 0xe72 <__divmodsi4>
     810:	21 50       	subi	r18, 0x01	; 1
     812:	31 09       	sbc	r19, r1
     814:	30 93 89 00 	sts	0x0089, r19	; 0x800089 <__TEXT_REGION_LENGTH__+0x7f8089>
     818:	20 93 88 00 	sts	0x0088, r18	; 0x800088 <__TEXT_REGION_LENGTH__+0x7f8088>
     81c:	81 e0       	ldi	r24, 0x01	; 1
     81e:	90 e0       	ldi	r25, 0x00	; 0
     820:	90 93 22 02 	sts	0x0222, r25	; 0x800222 <sound_playing+0x1>
     824:	80 93 21 02 	sts	0x0221, r24	; 0x800221 <sound_playing>
     828:	08 95       	ret

0000082a <RTTTL_interruption_handler>:
     82a:	80 91 2b 02 	lds	r24, 0x022B	; 0x80022b <duration_timer>
     82e:	90 91 2c 02 	lds	r25, 0x022C	; 0x80022c <duration_timer+0x1>
     832:	00 97       	sbiw	r24, 0x00	; 0
     834:	31 f0       	breq	.+12     	; 0x842 <RTTTL_interruption_handler+0x18>
     836:	01 97       	sbiw	r24, 0x01	; 1
     838:	90 93 2c 02 	sts	0x022C, r25	; 0x80022c <duration_timer+0x1>
     83c:	80 93 2b 02 	sts	0x022B, r24	; 0x80022b <duration_timer>
     840:	08 95       	ret
     842:	10 92 80 00 	sts	0x0080, r1	; 0x800080 <__TEXT_REGION_LENGTH__+0x7f8080>
     846:	10 92 22 02 	sts	0x0222, r1	; 0x800222 <sound_playing+0x1>
     84a:	10 92 21 02 	sts	0x0221, r1	; 0x800221 <sound_playing>
     84e:	08 95       	ret

00000850 <RTTTL_play_song>:
}


// Esta funcion reproduce una cancion dependiendo del numero que se pase por parametro
void RTTTL_play_song(uint8_t cancion_elegida)
{
     850:	4f 92       	push	r4
     852:	5f 92       	push	r5
     854:	6f 92       	push	r6
     856:	7f 92       	push	r7
     858:	af 92       	push	r10
     85a:	bf 92       	push	r11
     85c:	cf 92       	push	r12
     85e:	df 92       	push	r13
     860:	ef 92       	push	r14
     862:	ff 92       	push	r15
     864:	0f 93       	push	r16
     866:	1f 93       	push	r17
     868:	cf 93       	push	r28
     86a:	df 93       	push	r29
     86c:	cd b7       	in	r28, 0x3d	; 61
     86e:	de b7       	in	r29, 0x3e	; 62
			duration_timer = calc_duration;
			sound_playing = 1;
		}
		while (sound_playing);      // Espero a la que nota/pausa en curso finalice
	}
}
     870:	ed b6       	in	r14, 0x3d	; 61
     872:	fe b6       	in	r15, 0x3e	; 62


// Esta funcion reproduce una cancion dependiendo del numero que se pase por parametro
void RTTTL_play_song(uint8_t cancion_elegida)
{
	char buffer_song[duracion_cancion[cancion_elegida]];
     874:	e8 2f       	mov	r30, r24
     876:	f0 e0       	ldi	r31, 0x00	; 0
     878:	ee 0f       	add	r30, r30
     87a:	ff 1f       	adc	r31, r31
     87c:	df 01       	movw	r26, r30
     87e:	ac 5e       	subi	r26, 0xEC	; 236
     880:	bd 4f       	sbci	r27, 0xFD	; 253
     882:	8d 91       	ld	r24, X+
     884:	9c 91       	ld	r25, X
     886:	2d b7       	in	r18, 0x3d	; 61
     888:	3e b7       	in	r19, 0x3e	; 62
     88a:	28 1b       	sub	r18, r24
     88c:	39 0b       	sbc	r19, r25
     88e:	0f b6       	in	r0, 0x3f	; 63
     890:	f8 94       	cli
     892:	3e bf       	out	0x3e, r19	; 62
     894:	0f be       	out	0x3f, r0	; 63
     896:	2d bf       	out	0x3d, r18	; 61
     898:	8d b7       	in	r24, 0x3d	; 61
     89a:	9e b7       	in	r25, 0x3e	; 62
     89c:	01 96       	adiw	r24, 0x01	; 1
     89e:	8c 01       	movw	r16, r24
	strcpy_P(buffer_song, (char *)pgm_read_word(&(song_table[cancion_elegida])));
     8a0:	ee 59       	subi	r30, 0x9E	; 158
     8a2:	fe 4f       	sbci	r31, 0xFE	; 254
     8a4:	65 91       	lpm	r22, Z+
     8a6:	74 91       	lpm	r23, Z
     8a8:	0e 94 9e 07 	call	0xf3c	; 0xf3c <strcpy_P>
	char * song = buffer_song;
	unsigned char temp_duration, temp_octave, current_note, dot_flag;
	unsigned int calc_duration;
	duration = 4;                 // Duraci?n est?ndar = 4/4 = 1 beat
     8ac:	84 e0       	ldi	r24, 0x04	; 4
     8ae:	80 93 2a 02 	sts	0x022A, r24	; 0x80022a <duration>
	tempo = 63;                   // Tempo est?ndar = 63 bpm
     8b2:	8f e3       	ldi	r24, 0x3F	; 63
     8b4:	90 e0       	ldi	r25, 0x00	; 0
     8b6:	90 93 29 02 	sts	0x0229, r25	; 0x800229 <tempo+0x1>
     8ba:	80 93 28 02 	sts	0x0228, r24	; 0x800228 <tempo>
	octave = 6;                   // Octava est?ndar = 6th
     8be:	86 e0       	ldi	r24, 0x06	; 6
     8c0:	80 93 2d 02 	sts	0x022D, r24	; 0x80022d <octave>
	while (*song != ':') song++;  // Busca el primer ':'
     8c4:	02 c0       	rjmp	.+4      	; 0x8ca <RTTTL_play_song+0x7a>
     8c6:	0f 5f       	subi	r16, 0xFF	; 255
     8c8:	1f 4f       	sbci	r17, 0xFF	; 255
     8ca:	d8 01       	movw	r26, r16
     8cc:	8c 91       	ld	r24, X
     8ce:	8a 33       	cpi	r24, 0x3A	; 58
     8d0:	d1 f7       	brne	.-12     	; 0x8c6 <RTTTL_play_song+0x76>
	song++;                       // Saltea el primer ':'
     8d2:	f8 01       	movw	r30, r16
     8d4:	31 96       	adiw	r30, 0x01	; 1
	while (*song!=':')            // Repite hasta encontrar ':'
     8d6:	aa c0       	rjmp	.+340    	; 0xa2c <__stack+0x12d>
	{
		if (*song == 'd')           // Entra si es el seteo de la duraci?n
     8d8:	84 36       	cpi	r24, 0x64	; 100
     8da:	61 f5       	brne	.+88     	; 0x934 <__stack+0x35>
		{
			duration = 0;             // Seteo la duraci?n en cero (temporalmente)
     8dc:	10 92 2a 02 	sts	0x022A, r1	; 0x80022a <duration>
			song++;                   // Avanzo al pr?ximo caracter
     8e0:	df 01       	movw	r26, r30
     8e2:	11 96       	adiw	r26, 0x01	; 1
			while (*song == '=') song++;  // Salteo '='
     8e4:	01 c0       	rjmp	.+2      	; 0x8e8 <RTTTL_play_song+0x98>
     8e6:	11 96       	adiw	r26, 0x01	; 1
     8e8:	8c 91       	ld	r24, X
     8ea:	8d 33       	cpi	r24, 0x3D	; 61
     8ec:	e1 f3       	breq	.-8      	; 0x8e6 <RTTTL_play_song+0x96>
     8ee:	01 c0       	rjmp	.+2      	; 0x8f2 <RTTTL_play_song+0xa2>
			while (*song == ' ') song++;  // Salteo los espacios
     8f0:	11 96       	adiw	r26, 0x01	; 1
     8f2:	8c 91       	ld	r24, X
     8f4:	80 32       	cpi	r24, 0x20	; 32
     8f6:	e1 f3       	breq	.-8      	; 0x8f0 <RTTTL_play_song+0xa0>
			// Si el caracter es un n?mero, seteo la duraci?n
			if (*song>='0' && *song<='9') duration = *song - '0';
     8f8:	80 53       	subi	r24, 0x30	; 48
     8fa:	8a 30       	cpi	r24, 0x0A	; 10
     8fc:	10 f4       	brcc	.+4      	; 0x902 <__stack+0x3>
     8fe:	80 93 2a 02 	sts	0x022A, r24	; 0x80022a <duration>
			song++;                   // Avanzo al pr?ximo caracter
     902:	fd 01       	movw	r30, r26
     904:	31 96       	adiw	r30, 0x01	; 1
			// Me fijo si el caracter es un n?mero, ya que la diraci?n puede ser de dos d?gitos de largo
			if (*song>='0' && *song<='9')
     906:	11 96       	adiw	r26, 0x01	; 1
     908:	8c 91       	ld	r24, X
     90a:	90 ed       	ldi	r25, 0xD0	; 208
     90c:	98 0f       	add	r25, r24
     90e:	9a 30       	cpi	r25, 0x0A	; 10
     910:	70 f4       	brcc	.+28     	; 0x92e <__stack+0x2f>
			{ // Multiplico duraci?n por 10 y le agrego el valor del caracter
				duration = duration*10 + (*song - '0');
     912:	90 91 2a 02 	lds	r25, 0x022A	; 0x80022a <duration>
     916:	99 0f       	add	r25, r25
     918:	29 2f       	mov	r18, r25
     91a:	22 0f       	add	r18, r18
     91c:	22 0f       	add	r18, r18
     91e:	92 0f       	add	r25, r18
     920:	89 0f       	add	r24, r25
     922:	80 53       	subi	r24, 0x30	; 48
     924:	80 93 2a 02 	sts	0x022A, r24	; 0x80022a <duration>
				song++;                 // Avanzo al pr?ximo caracter
     928:	31 96       	adiw	r30, 0x01	; 1
     92a:	01 c0       	rjmp	.+2      	; 0x92e <__stack+0x2f>
			}
			while (*song == ',') song++;  // Salteo ','
     92c:	31 96       	adiw	r30, 0x01	; 1
     92e:	80 81       	ld	r24, Z
     930:	8c 32       	cpi	r24, 0x2C	; 44
     932:	e1 f3       	breq	.-8      	; 0x92c <__stack+0x2d>
		}
		
		if (*song == 'o')           // Entra si es el seteo de la octava
     934:	80 81       	ld	r24, Z
     936:	8f 36       	cpi	r24, 0x6F	; 111
     938:	c1 f4       	brne	.+48     	; 0x96a <__stack+0x6b>
		{
			octave = 0;               // Seteo la octava en cero (temporalmente)
     93a:	10 92 2d 02 	sts	0x022D, r1	; 0x80022d <octave>
			song++;                   // Avanzo al pr?ximo caracter
     93e:	31 96       	adiw	r30, 0x01	; 1
			while (*song == '=') song++;  // Salteo '='
     940:	01 c0       	rjmp	.+2      	; 0x944 <__stack+0x45>
     942:	31 96       	adiw	r30, 0x01	; 1
     944:	80 81       	ld	r24, Z
     946:	8d 33       	cpi	r24, 0x3D	; 61
     948:	e1 f3       	breq	.-8      	; 0x942 <__stack+0x43>
     94a:	01 c0       	rjmp	.+2      	; 0x94e <__stack+0x4f>
			while (*song == ' ') song++;  // Salteo los espacios
     94c:	31 96       	adiw	r30, 0x01	; 1
     94e:	80 81       	ld	r24, Z
     950:	80 32       	cpi	r24, 0x20	; 32
     952:	e1 f3       	breq	.-8      	; 0x94c <__stack+0x4d>
			// Si el caracter es un n?mero, seteo la octava
			if (*song>='0' && *song<='9') octave = *song - '0';
     954:	80 53       	subi	r24, 0x30	; 48
     956:	8a 30       	cpi	r24, 0x0A	; 10
     958:	10 f4       	brcc	.+4      	; 0x95e <__stack+0x5f>
     95a:	80 93 2d 02 	sts	0x022D, r24	; 0x80022d <octave>
			song++;                   // Avanzo al pr?ximo caracter
     95e:	31 96       	adiw	r30, 0x01	; 1
			while (*song == ',') song++;  // Salteo ','
     960:	01 c0       	rjmp	.+2      	; 0x964 <__stack+0x65>
     962:	31 96       	adiw	r30, 0x01	; 1
     964:	80 81       	ld	r24, Z
     966:	8c 32       	cpi	r24, 0x2C	; 44
     968:	e1 f3       	breq	.-8      	; 0x962 <__stack+0x63>
		}
		if (*song == 'b')           // Entra si es el seteo del tempo (beats por minuto)
     96a:	80 81       	ld	r24, Z
     96c:	82 36       	cpi	r24, 0x62	; 98
     96e:	09 f0       	breq	.+2      	; 0x972 <__stack+0x73>
     970:	5a c0       	rjmp	.+180    	; 0xa26 <__stack+0x127>
		{
			tempo = 0;                // Seteo el tempo en cero (temporalmente)
     972:	10 92 29 02 	sts	0x0229, r1	; 0x800229 <tempo+0x1>
     976:	10 92 28 02 	sts	0x0228, r1	; 0x800228 <tempo>
			song++;                   // Avanzo al pr?ximo caracter
     97a:	df 01       	movw	r26, r30
     97c:	11 96       	adiw	r26, 0x01	; 1
			while (*song == '=') song++;  // Salteo '='
     97e:	01 c0       	rjmp	.+2      	; 0x982 <__stack+0x83>
     980:	11 96       	adiw	r26, 0x01	; 1
     982:	8c 91       	ld	r24, X
     984:	8d 33       	cpi	r24, 0x3D	; 61
     986:	e1 f3       	breq	.-8      	; 0x980 <__stack+0x81>
     988:	01 c0       	rjmp	.+2      	; 0x98c <__stack+0x8d>
			while (*song == ' ') song++;  // Salteo los espacios
     98a:	11 96       	adiw	r26, 0x01	; 1
     98c:	8c 91       	ld	r24, X
     98e:	80 32       	cpi	r24, 0x20	; 32
     990:	e1 f3       	breq	.-8      	; 0x98a <__stack+0x8b>
			// Ahora leo el seteo del tempo (puede tener 3 d?gitos de largo)
			if (*song>='0' && *song<='9') tempo = *song - '0';
     992:	90 ed       	ldi	r25, 0xD0	; 208
     994:	98 0f       	add	r25, r24
     996:	9a 30       	cpi	r25, 0x0A	; 10
     998:	30 f4       	brcc	.+12     	; 0x9a6 <__stack+0xa7>
     99a:	90 e0       	ldi	r25, 0x00	; 0
     99c:	c0 97       	sbiw	r24, 0x30	; 48
     99e:	90 93 29 02 	sts	0x0229, r25	; 0x800229 <tempo+0x1>
     9a2:	80 93 28 02 	sts	0x0228, r24	; 0x800228 <tempo>
			song++;                   // Avanzo al pr?ximo caracter
     9a6:	fd 01       	movw	r30, r26
     9a8:	31 96       	adiw	r30, 0x01	; 1
			if (*song>='0' && *song<='9')
     9aa:	11 96       	adiw	r26, 0x01	; 1
     9ac:	4c 91       	ld	r20, X
     9ae:	11 97       	sbiw	r26, 0x01	; 1
     9b0:	80 ed       	ldi	r24, 0xD0	; 208
     9b2:	84 0f       	add	r24, r20
     9b4:	8a 30       	cpi	r24, 0x0A	; 10
     9b6:	90 f5       	brcc	.+100    	; 0xa1c <__stack+0x11d>
			{
				tempo = tempo*10 + (*song - '0'); // El tempo tiene dos d?gitos
     9b8:	20 91 28 02 	lds	r18, 0x0228	; 0x800228 <tempo>
     9bc:	30 91 29 02 	lds	r19, 0x0229	; 0x800229 <tempo+0x1>
     9c0:	c9 01       	movw	r24, r18
     9c2:	88 0f       	add	r24, r24
     9c4:	99 1f       	adc	r25, r25
     9c6:	22 0f       	add	r18, r18
     9c8:	33 1f       	adc	r19, r19
     9ca:	22 0f       	add	r18, r18
     9cc:	33 1f       	adc	r19, r19
     9ce:	22 0f       	add	r18, r18
     9d0:	33 1f       	adc	r19, r19
     9d2:	82 0f       	add	r24, r18
     9d4:	93 1f       	adc	r25, r19
     9d6:	84 0f       	add	r24, r20
     9d8:	91 1d       	adc	r25, r1
     9da:	c0 97       	sbiw	r24, 0x30	; 48
     9dc:	90 93 29 02 	sts	0x0229, r25	; 0x800229 <tempo+0x1>
     9e0:	80 93 28 02 	sts	0x0228, r24	; 0x800228 <tempo>
				song++;                 // Avanzo al pr?ximo caracter
     9e4:	31 96       	adiw	r30, 0x01	; 1
				if (*song>='0' && *song<='9')
     9e6:	12 96       	adiw	r26, 0x02	; 2
     9e8:	2c 91       	ld	r18, X
     9ea:	30 ed       	ldi	r19, 0xD0	; 208
     9ec:	32 0f       	add	r19, r18
     9ee:	3a 30       	cpi	r19, 0x0A	; 10
     9f0:	a8 f4       	brcc	.+42     	; 0xa1c <__stack+0x11d>
				{
					tempo = tempo*10 + (*song - '0'); // El tempo tiene tres d?gitos
     9f2:	ac 01       	movw	r20, r24
     9f4:	44 0f       	add	r20, r20
     9f6:	55 1f       	adc	r21, r21
     9f8:	88 0f       	add	r24, r24
     9fa:	99 1f       	adc	r25, r25
     9fc:	88 0f       	add	r24, r24
     9fe:	99 1f       	adc	r25, r25
     a00:	88 0f       	add	r24, r24
     a02:	99 1f       	adc	r25, r25
     a04:	84 0f       	add	r24, r20
     a06:	95 1f       	adc	r25, r21
     a08:	82 0f       	add	r24, r18
     a0a:	91 1d       	adc	r25, r1
     a0c:	c0 97       	sbiw	r24, 0x30	; 48
     a0e:	90 93 29 02 	sts	0x0229, r25	; 0x800229 <tempo+0x1>
     a12:	80 93 28 02 	sts	0x0228, r24	; 0x800228 <tempo>
					song++;               // Avanzo al pr?ximo caracter
     a16:	31 96       	adiw	r30, 0x01	; 1
     a18:	01 c0       	rjmp	.+2      	; 0xa1c <__stack+0x11d>
				}
			}
			while (*song == ',') song++;  // Salteo ','
     a1a:	31 96       	adiw	r30, 0x01	; 1
     a1c:	80 81       	ld	r24, Z
     a1e:	8c 32       	cpi	r24, 0x2C	; 44
     a20:	e1 f3       	breq	.-8      	; 0xa1a <__stack+0x11b>
     a22:	01 c0       	rjmp	.+2      	; 0xa26 <__stack+0x127>
		}
		while (*song == ',') song++;    // Salteo ','
     a24:	31 96       	adiw	r30, 0x01	; 1
     a26:	80 81       	ld	r24, Z
     a28:	8c 32       	cpi	r24, 0x2C	; 44
     a2a:	e1 f3       	breq	.-8      	; 0xa24 <__stack+0x125>
	duration = 4;                 // Duraci?n est?ndar = 4/4 = 1 beat
	tempo = 63;                   // Tempo est?ndar = 63 bpm
	octave = 6;                   // Octava est?ndar = 6th
	while (*song != ':') song++;  // Busca el primer ':'
	song++;                       // Saltea el primer ':'
	while (*song!=':')            // Repite hasta encontrar ':'
     a2c:	80 81       	ld	r24, Z
     a2e:	8a 33       	cpi	r24, 0x3A	; 58
     a30:	09 f0       	breq	.+2      	; 0xa34 <__stack+0x135>
     a32:	52 cf       	rjmp	.-348    	; 0x8d8 <RTTTL_play_song+0x88>
			}
			while (*song == ',') song++;  // Salteo ','
		}
		while (*song == ',') song++;    // Salteo ','
	}
	song++;                       // Avanzo al pr?ximo caracter
     a34:	8f 01       	movw	r16, r30
     a36:	0f 5f       	subi	r16, 0xFF	; 255
     a38:	1f 4f       	sbci	r17, 0xFF	; 255
	// read the musical notes
	while ((*song) && !FLAG_stop)                 // Repito hasta que el caracter sea null
     a3a:	c1 c0       	rjmp	.+386    	; 0xbbe <__stack+0x2bf>
	{
		current_note = 255;         // Nota por defecto = pausa
		temp_octave = octave;       // Seteo la octava a la por defecto de la canci?n
     a3c:	c0 90 2d 02 	lds	r12, 0x022D	; 0x80022d <octave>
		temp_duration = duration;   // Seteo la duraci?n a la por defecto de la canci?n
     a40:	b0 90 2a 02 	lds	r11, 0x022A	; 0x80022a <duration>
		dot_flag = 0;               // Borro el flag de detecci?n de punto
		// Busco un prefijo de duraci?n
		if (*song>='0' && *song<='9')
     a44:	80 53       	subi	r24, 0x30	; 48
     a46:	8a 30       	cpi	r24, 0x0A	; 10
     a48:	c8 f4       	brcc	.+50     	; 0xa7c <__stack+0x17d>
		{
			temp_duration = *song - '0';
			song++;
     a4a:	a8 01       	movw	r20, r16
     a4c:	4f 5f       	subi	r20, 0xFF	; 255
     a4e:	5f 4f       	sbci	r21, 0xFF	; 255
			if (*song>='0' && *song<='9')
     a50:	f8 01       	movw	r30, r16
     a52:	91 81       	ldd	r25, Z+1	; 0x01
     a54:	20 ed       	ldi	r18, 0xD0	; 208
     a56:	29 0f       	add	r18, r25
     a58:	2a 30       	cpi	r18, 0x0A	; 10
     a5a:	70 f4       	brcc	.+28     	; 0xa78 <__stack+0x179>
			{
				temp_duration = temp_duration*10 + (*song - '0');
     a5c:	88 0f       	add	r24, r24
     a5e:	b8 2e       	mov	r11, r24
     a60:	bb 0c       	add	r11, r11
     a62:	bb 0c       	add	r11, r11
     a64:	8b 0d       	add	r24, r11
     a66:	98 0f       	add	r25, r24
     a68:	0f 2e       	mov	r0, r31
     a6a:	f0 ed       	ldi	r31, 0xD0	; 208
     a6c:	bf 2e       	mov	r11, r31
     a6e:	f0 2d       	mov	r31, r0
     a70:	b9 0e       	add	r11, r25
				song++;
     a72:	0e 5f       	subi	r16, 0xFE	; 254
     a74:	1f 4f       	sbci	r17, 0xFF	; 255
     a76:	02 c0       	rjmp	.+4      	; 0xa7c <__stack+0x17d>
		temp_duration = duration;   // Seteo la duraci?n a la por defecto de la canci?n
		dot_flag = 0;               // Borro el flag de detecci?n de punto
		// Busco un prefijo de duraci?n
		if (*song>='0' && *song<='9')
		{
			temp_duration = *song - '0';
     a78:	b8 2e       	mov	r11, r24
			song++;
     a7a:	8a 01       	movw	r16, r20
				temp_duration = temp_duration*10 + (*song - '0');
				song++;
			}
		}
		// Busco una nota
		switch (*song)
     a7c:	d8 01       	movw	r26, r16
     a7e:	ec 91       	ld	r30, X
     a80:	8e 2f       	mov	r24, r30
     a82:	90 e0       	ldi	r25, 0x00	; 0
     a84:	fc 01       	movw	r30, r24
     a86:	e1 56       	subi	r30, 0x61	; 97
     a88:	f1 09       	sbc	r31, r1
     a8a:	e7 30       	cpi	r30, 0x07	; 7
     a8c:	f1 05       	cpc	r31, r1
     a8e:	20 f4       	brcc	.+8      	; 0xa98 <__stack+0x199>
     a90:	ec 5c       	subi	r30, 0xCC	; 204
     a92:	ff 4f       	sbci	r31, 0xFF	; 255
     a94:	0c 94 58 07 	jmp	0xeb0	; 0xeb0 <__tablejump2__>
	}
	song++;                       // Avanzo al pr?ximo caracter
	// read the musical notes
	while ((*song) && !FLAG_stop)                 // Repito hasta que el caracter sea null
	{
		current_note = 255;         // Nota por defecto = pausa
     a98:	dd 24       	eor	r13, r13
     a9a:	da 94       	dec	r13
     a9c:	1d c0       	rjmp	.+58     	; 0xad8 <__stack+0x1d9>
		}
		// Busco una nota
		switch (*song)
		{
			case 'c': current_note = 0; break;    // C (do)
			case 'd': current_note = 2; break;    // D (re)
     a9e:	68 94       	set
     aa0:	dd 24       	eor	r13, r13
     aa2:	d1 f8       	bld	r13, 1
     aa4:	19 c0       	rjmp	.+50     	; 0xad8 <__stack+0x1d9>
			case 'e': current_note = 4; break;    // E (mi)
     aa6:	68 94       	set
     aa8:	dd 24       	eor	r13, r13
     aaa:	d2 f8       	bld	r13, 2
     aac:	15 c0       	rjmp	.+42     	; 0xad8 <__stack+0x1d9>
			case 'f': current_note = 5; break;    // F (fa)
     aae:	0f 2e       	mov	r0, r31
     ab0:	f5 e0       	ldi	r31, 0x05	; 5
     ab2:	df 2e       	mov	r13, r31
     ab4:	f0 2d       	mov	r31, r0
     ab6:	10 c0       	rjmp	.+32     	; 0xad8 <__stack+0x1d9>
			case 'g': current_note = 7; break;    // G (sol)
     ab8:	0f 2e       	mov	r0, r31
     aba:	f7 e0       	ldi	r31, 0x07	; 7
     abc:	df 2e       	mov	r13, r31
     abe:	f0 2d       	mov	r31, r0
     ac0:	0b c0       	rjmp	.+22     	; 0xad8 <__stack+0x1d9>
			case 'a': current_note = 9; break;    // A (la)
     ac2:	0f 2e       	mov	r0, r31
     ac4:	f9 e0       	ldi	r31, 0x09	; 9
     ac6:	df 2e       	mov	r13, r31
     ac8:	f0 2d       	mov	r31, r0
     aca:	06 c0       	rjmp	.+12     	; 0xad8 <__stack+0x1d9>
			case 'b': current_note = 11; break;   // B (si)
     acc:	0f 2e       	mov	r0, r31
     ace:	fb e0       	ldi	r31, 0x0B	; 11
     ad0:	df 2e       	mov	r13, r31
     ad2:	f0 2d       	mov	r31, r0
     ad4:	01 c0       	rjmp	.+2      	; 0xad8 <__stack+0x1d9>
			}
		}
		// Busco una nota
		switch (*song)
		{
			case 'c': current_note = 0; break;    // C (do)
     ad6:	d1 2c       	mov	r13, r1
			case 'g': current_note = 7; break;    // G (sol)
			case 'a': current_note = 9; break;    // A (la)
			case 'b': current_note = 11; break;   // B (si)
			case 'p': current_note = 255; break;  // pausa
		}
		song++;                     // Avanzo al pr?ximo caracter
     ad8:	f8 01       	movw	r30, r16
     ada:	31 96       	adiw	r30, 0x01	; 1
		// Busco un '#' siguiendo la nota
		if (*song=='#')
     adc:	d8 01       	movw	r26, r16
     ade:	11 96       	adiw	r26, 0x01	; 1
     ae0:	8c 91       	ld	r24, X
     ae2:	83 32       	cpi	r24, 0x23	; 35
     ae4:	11 f4       	brne	.+4      	; 0xaea <__stack+0x1eb>
		{
			current_note++;   // Incremento la nota (A->A#, C->C#, D->D#, F->F#, G->G#)
     ae6:	d3 94       	inc	r13
			song++;                   // Avanzo al pr?ximo caracter
     ae8:	31 96       	adiw	r30, 0x01	; 1
		}
		// Busco '.' (extiende la duraci?n de la nota un 50%)
		if (*song=='.')
     aea:	80 81       	ld	r24, Z
     aec:	8e 32       	cpi	r24, 0x2E	; 46
     aee:	21 f4       	brne	.+8      	; 0xaf8 <__stack+0x1f9>
		{
			dot_flag = 1;             // Si se encuentra '.', seteo el flag
			song++;                   // Avanzo al pr?ximo caracter
     af0:	31 96       	adiw	r30, 0x01	; 1
			song++;                   // Avanzo al pr?ximo caracter
		}
		// Busco '.' (extiende la duraci?n de la nota un 50%)
		if (*song=='.')
		{
			dot_flag = 1;             // Si se encuentra '.', seteo el flag
     af2:	aa 24       	eor	r10, r10
     af4:	a3 94       	inc	r10
     af6:	01 c0       	rjmp	.+2      	; 0xafa <__stack+0x1fb>
	while ((*song) && !FLAG_stop)                 // Repito hasta que el caracter sea null
	{
		current_note = 255;         // Nota por defecto = pausa
		temp_octave = octave;       // Seteo la octava a la por defecto de la canci?n
		temp_duration = duration;   // Seteo la duraci?n a la por defecto de la canci?n
		dot_flag = 0;               // Borro el flag de detecci?n de punto
     af8:	a1 2c       	mov	r10, r1
		{
			dot_flag = 1;             // Si se encuentra '.', seteo el flag
			song++;                   // Avanzo al pr?ximo caracter
		}
		// Busco un sufijo de una octava
		if (*song>='0' && *song<='9')
     afa:	80 81       	ld	r24, Z
     afc:	80 53       	subi	r24, 0x30	; 48
     afe:	8a 30       	cpi	r24, 0x0A	; 10
     b00:	10 f4       	brcc	.+4      	; 0xb06 <__stack+0x207>
		{
			temp_octave = *song - '0';// Seteo la octava en consecuencia
			song++;                   // Avanzo al pr?ximo caracter
     b02:	31 96       	adiw	r30, 0x01	; 1
			song++;                   // Avanzo al pr?ximo caracter
		}
		// Busco un sufijo de una octava
		if (*song>='0' && *song<='9')
		{
			temp_octave = *song - '0';// Seteo la octava en consecuencia
     b04:	c8 2e       	mov	r12, r24
			song++;                   // Avanzo al pr?ximo caracter
		}
		if (*song=='.') // Un punto puede ser encontrado incluso despu?s de una octava
     b06:	80 81       	ld	r24, Z
     b08:	8e 32       	cpi	r24, 0x2E	; 46
     b0a:	19 f4       	brne	.+6      	; 0xb12 <__stack+0x213>
		{
			dot_flag = 1;             // Si se encuentra '.', seteo el flag
			song++;                   // Avanzo al pr?ximo caracter
     b0c:	31 96       	adiw	r30, 0x01	; 1
			temp_octave = *song - '0';// Seteo la octava en consecuencia
			song++;                   // Avanzo al pr?ximo caracter
		}
		if (*song=='.') // Un punto puede ser encontrado incluso despu?s de una octava
		{
			dot_flag = 1;             // Si se encuentra '.', seteo el flag
     b0e:	aa 24       	eor	r10, r10
     b10:	a3 94       	inc	r10
     b12:	8f 01       	movw	r16, r30
     b14:	02 c0       	rjmp	.+4      	; 0xb1a <__stack+0x21b>
			song++;                   // Avanzo al pr?ximo caracter
		}
		while (*song == ',') song++;    // Salteo ','
     b16:	0f 5f       	subi	r16, 0xFF	; 255
     b18:	1f 4f       	sbci	r17, 0xFF	; 255
     b1a:	f8 01       	movw	r30, r16
     b1c:	80 81       	ld	r24, Z
     b1e:	8c 32       	cpi	r24, 0x2C	; 44
     b20:	d1 f3       	breq	.-12     	; 0xb16 <__stack+0x217>
		// Calculo la duraci?n de la nota
		calc_duration = (60000/tempo)/(temp_duration);
     b22:	20 91 28 02 	lds	r18, 0x0228	; 0x800228 <tempo>
     b26:	30 91 29 02 	lds	r19, 0x0229	; 0x800229 <tempo+0x1>
     b2a:	40 e0       	ldi	r20, 0x00	; 0
     b2c:	50 e0       	ldi	r21, 0x00	; 0
     b2e:	60 e6       	ldi	r22, 0x60	; 96
     b30:	7a ee       	ldi	r23, 0xEA	; 234
     b32:	80 e0       	ldi	r24, 0x00	; 0
     b34:	90 e0       	ldi	r25, 0x00	; 0
     b36:	0e 94 39 07 	call	0xe72	; 0xe72 <__divmodsi4>
     b3a:	4b 2c       	mov	r4, r11
     b3c:	51 2c       	mov	r5, r1
     b3e:	61 2c       	mov	r6, r1
     b40:	71 2c       	mov	r7, r1
     b42:	ca 01       	movw	r24, r20
     b44:	b9 01       	movw	r22, r18
     b46:	a3 01       	movw	r20, r6
     b48:	92 01       	movw	r18, r4
     b4a:	0e 94 39 07 	call	0xe72	; 0xe72 <__divmodsi4>
		calc_duration *= 4;         // La nota completa tiene cuatro beats
     b4e:	22 0f       	add	r18, r18
     b50:	33 1f       	adc	r19, r19
     b52:	22 0f       	add	r18, r18
     b54:	33 1f       	adc	r19, r19
		// Chequeo si el flag de punto est? activado, de ser as?, extiendo la duraci?n en un 50%
		if (dot_flag) calc_duration = (calc_duration*3)/2;
     b56:	aa 20       	and	r10, r10
     b58:	39 f0       	breq	.+14     	; 0xb68 <__stack+0x269>
     b5a:	b9 01       	movw	r22, r18
     b5c:	66 0f       	add	r22, r22
     b5e:	77 1f       	adc	r23, r23
     b60:	26 0f       	add	r18, r22
     b62:	37 1f       	adc	r19, r23
     b64:	36 95       	lsr	r19
     b66:	27 95       	ror	r18
		// Si la nota actual NO es una pausa, reproduzco la nota usando la funci?n sound
		if (current_note<255) RTTTL_sound(note[temp_octave-4][current_note],calc_duration);
     b68:	ff ef       	ldi	r31, 0xFF	; 255
     b6a:	df 16       	cp	r13, r31
     b6c:	c1 f0       	breq	.+48     	; 0xb9e <__stack+0x29f>
     b6e:	8c 2d       	mov	r24, r12
     b70:	90 e0       	ldi	r25, 0x00	; 0
     b72:	04 97       	sbiw	r24, 0x04	; 4
     b74:	fc 01       	movw	r30, r24
     b76:	ee 0f       	add	r30, r30
     b78:	ff 1f       	adc	r31, r31
     b7a:	e8 0f       	add	r30, r24
     b7c:	f9 1f       	adc	r31, r25
     b7e:	ee 0f       	add	r30, r30
     b80:	ff 1f       	adc	r31, r31
     b82:	ee 0f       	add	r30, r30
     b84:	ff 1f       	adc	r31, r31
     b86:	ed 0d       	add	r30, r13
     b88:	f1 1d       	adc	r31, r1
     b8a:	ee 0f       	add	r30, r30
     b8c:	ff 1f       	adc	r31, r31
     b8e:	ec 54       	subi	r30, 0x4C	; 76
     b90:	fe 4f       	sbci	r31, 0xFE	; 254
     b92:	b9 01       	movw	r22, r18
     b94:	80 81       	ld	r24, Z
     b96:	91 81       	ldd	r25, Z+1	; 0x01
     b98:	0e 94 f0 03 	call	0x7e0	; 0x7e0 <RTTTL_sound>
     b9c:	0a c0       	rjmp	.+20     	; 0xbb2 <__stack+0x2b3>
		else
		{ // Si la nota actual es una pausa (255), espero dicha cantidad de tiempo
			duration_timer = calc_duration;
     b9e:	30 93 2c 02 	sts	0x022C, r19	; 0x80022c <duration_timer+0x1>
     ba2:	20 93 2b 02 	sts	0x022B, r18	; 0x80022b <duration_timer>
			sound_playing = 1;
     ba6:	81 e0       	ldi	r24, 0x01	; 1
     ba8:	90 e0       	ldi	r25, 0x00	; 0
     baa:	90 93 22 02 	sts	0x0222, r25	; 0x800222 <sound_playing+0x1>
     bae:	80 93 21 02 	sts	0x0221, r24	; 0x800221 <sound_playing>
		}
		while (sound_playing);      // Espero a la que nota/pausa en curso finalice
     bb2:	80 91 21 02 	lds	r24, 0x0221	; 0x800221 <sound_playing>
     bb6:	90 91 22 02 	lds	r25, 0x0222	; 0x800222 <sound_playing+0x1>
     bba:	89 2b       	or	r24, r25
     bbc:	d1 f7       	brne	.-12     	; 0xbb2 <__stack+0x2b3>
		}
		while (*song == ',') song++;    // Salteo ','
	}
	song++;                       // Avanzo al pr?ximo caracter
	// read the musical notes
	while ((*song) && !FLAG_stop)                 // Repito hasta que el caracter sea null
     bbe:	d8 01       	movw	r26, r16
     bc0:	8c 91       	ld	r24, X
     bc2:	88 23       	and	r24, r24
     bc4:	29 f0       	breq	.+10     	; 0xbd0 <__stack+0x2d1>
     bc6:	90 91 20 02 	lds	r25, 0x0220	; 0x800220 <FLAG_stop>
     bca:	99 23       	and	r25, r25
     bcc:	09 f4       	brne	.+2      	; 0xbd0 <__stack+0x2d1>
     bce:	36 cf       	rjmp	.-404    	; 0xa3c <__stack+0x13d>
			duration_timer = calc_duration;
			sound_playing = 1;
		}
		while (sound_playing);      // Espero a la que nota/pausa en curso finalice
	}
}
     bd0:	0f b6       	in	r0, 0x3f	; 63
     bd2:	f8 94       	cli
     bd4:	fe be       	out	0x3e, r15	; 62
     bd6:	0f be       	out	0x3f, r0	; 63
     bd8:	ed be       	out	0x3d, r14	; 61
     bda:	df 91       	pop	r29
     bdc:	cf 91       	pop	r28
     bde:	1f 91       	pop	r17
     be0:	0f 91       	pop	r16
     be2:	ff 90       	pop	r15
     be4:	ef 90       	pop	r14
     be6:	df 90       	pop	r13
     be8:	cf 90       	pop	r12
     bea:	bf 90       	pop	r11
     bec:	af 90       	pop	r10
     bee:	7f 90       	pop	r7
     bf0:	6f 90       	pop	r6
     bf2:	5f 90       	pop	r5
     bf4:	4f 90       	pop	r4
     bf6:	08 95       	ret

00000bf8 <SEOS_Init_Timer>:
*/
void SEOS_Init_Timer() {
	// ------------------------ Timer 0 ------------------------
	
	// Configuro una interrupcin cada 1 mseg
	OCR0A = 248;			//124 para 8MHz y 248 para 16MHz
     bf8:	88 ef       	ldi	r24, 0xF8	; 248
     bfa:	87 bd       	out	0x27, r24	; 39
	TCCR0A = (1<<WGM01);   // Modo CTC, clock interno, prescalador 64
     bfc:	82 e0       	ldi	r24, 0x02	; 2
     bfe:	84 bd       	out	0x24, r24	; 36
	TCCR0B = (1<<CS01)|(1<<CS00);   // Modo CTC, clock interno, prescalador 64
     c00:	93 e0       	ldi	r25, 0x03	; 3
     c02:	95 bd       	out	0x25, r25	; 37
	TIMSK0 = (1<<OCIE0A);   // Habilito Timer 0 en modo de interrupcin de comparacin
     c04:	80 93 6e 00 	sts	0x006E, r24	; 0x80006e <__TEXT_REGION_LENGTH__+0x7f806e>
	
	
	// ------------------------ Timer 1 ------------------------
	
	TCCR1A|=(1<<COM1A0);// Configuro Timer1 para clk con prescaler P=1, modo CTC y salida por pin
     c08:	e0 e8       	ldi	r30, 0x80	; 128
     c0a:	f0 e0       	ldi	r31, 0x00	; 0
     c0c:	80 81       	ld	r24, Z
     c0e:	80 64       	ori	r24, 0x40	; 64
     c10:	80 83       	st	Z, r24
	TCCR1B|=(1<<WGM12)|(1<<CS10);
     c12:	e1 e8       	ldi	r30, 0x81	; 129
     c14:	f0 e0       	ldi	r31, 0x00	; 0
     c16:	80 81       	ld	r24, Z
     c18:	89 60       	ori	r24, 0x09	; 9
     c1a:	80 83       	st	Z, r24
	DDRB|=(1<<PINB1); // El PIN1 del PORTB ser el pin de salida
     c1c:	84 b1       	in	r24, 0x04	; 4
     c1e:	82 60       	ori	r24, 0x02	; 2
     c20:	84 b9       	out	0x04, r24	; 4


	//Habilito la mscara de interrupciones
	
	sei();
     c22:	78 94       	sei
     c24:	08 95       	ret

00000c26 <SEOS_Schedule_Tasks>:
/*
	SEOS_Schedule_Tasks:
		Esta funcion se ejecuta en cada interrupcion del timer 0, pone el flag de la UART en 1.
*/
void SEOS_Schedule_Tasks() {
	UART_flag=1;
     c26:	81 e0       	ldi	r24, 0x01	; 1
     c28:	80 93 23 02 	sts	0x0223, r24	; 0x800223 <UART_flag>
     c2c:	08 95       	ret

00000c2e <SEOS_Dispatch_Tasks>:
	SEOS_Dispatch_Tasks:
		Esta funcion se ejecuta constantemente, si el flag de la UART es uno, ejecuta la funcion UART_update, ademas se invoca a la funcion 
		MENU_Perform_task la cual ejecuta las acciones correspondientes dependiendo de la opcion de menu que se haya seleccionado.
*/
void SEOS_Dispatch_Tasks() {
	if (UART_flag) {
     c2e:	80 91 23 02 	lds	r24, 0x0223	; 0x800223 <UART_flag>
     c32:	88 23       	and	r24, r24
     c34:	21 f0       	breq	.+8      	; 0xc3e <SEOS_Dispatch_Tasks+0x10>
		UART_flag=0;
     c36:	10 92 23 02 	sts	0x0223, r1	; 0x800223 <UART_flag>
		UART_Update();
     c3a:	0e 94 91 06 	call	0xd22	; 0xd22 <UART_Update>
	}
	MENU_Perform_Task();
     c3e:	0e 94 6f 03 	call	0x6de	; 0x6de <MENU_Perform_Task>
     c42:	08 95       	ret

00000c44 <__vector_14>:
}

// Control de la duracin del sonido
ISR (TIMER0_COMPA_vect) // ISR para la interrupcin de comparacin del Timer 0
{
     c44:	1f 92       	push	r1
     c46:	0f 92       	push	r0
     c48:	0f b6       	in	r0, 0x3f	; 63
     c4a:	0f 92       	push	r0
     c4c:	11 24       	eor	r1, r1
     c4e:	2f 93       	push	r18
     c50:	3f 93       	push	r19
     c52:	4f 93       	push	r20
     c54:	5f 93       	push	r21
     c56:	6f 93       	push	r22
     c58:	7f 93       	push	r23
     c5a:	8f 93       	push	r24
     c5c:	9f 93       	push	r25
     c5e:	af 93       	push	r26
     c60:	bf 93       	push	r27
     c62:	ef 93       	push	r30
     c64:	ff 93       	push	r31
	SEOS_Schedule_Tasks();
     c66:	0e 94 13 06 	call	0xc26	; 0xc26 <SEOS_Schedule_Tasks>
	RTTTL_interruption_handler();
     c6a:	0e 94 15 04 	call	0x82a	; 0x82a <RTTTL_interruption_handler>
     c6e:	ff 91       	pop	r31
     c70:	ef 91       	pop	r30
     c72:	bf 91       	pop	r27
     c74:	af 91       	pop	r26
     c76:	9f 91       	pop	r25
     c78:	8f 91       	pop	r24
     c7a:	7f 91       	pop	r23
     c7c:	6f 91       	pop	r22
     c7e:	5f 91       	pop	r21
     c80:	4f 91       	pop	r20
     c82:	3f 91       	pop	r19
     c84:	2f 91       	pop	r18
     c86:	0f 90       	pop	r0
     c88:	0f be       	out	0x3f, r0	; 63
     c8a:	0f 90       	pop	r0
     c8c:	1f 90       	pop	r1
     c8e:	18 95       	reti

00000c90 <UART_Init>:
		Configura lso registros necesarios para inicializar la UART con 9600bps, 8 bit de datos, 1 stop.
*/
void UART_Init(uint8_t baud){
	// config = 0x33 ==> Configuro UART 9600bps, 8 bit data, 1 stop @ F_CPU = 8MHz.
	// config = 0x25 ==> Configuro UART 9600bps, 8 bit data, 1 stop @ F_CPU = 4Hz.
	UCSR0B = 0;
     c90:	e1 ec       	ldi	r30, 0xC1	; 193
     c92:	f0 e0       	ldi	r31, 0x00	; 0
     c94:	10 82       	st	Z, r1
	UCSR0C = (1<<UCSZ01) | (1<<UCSZ00);
     c96:	96 e0       	ldi	r25, 0x06	; 6
     c98:	90 93 c2 00 	sts	0x00C2, r25	; 0x8000c2 <__TEXT_REGION_LENGTH__+0x7f80c2>
	UBRR0H = (unsigned char)(baud>>8);
     c9c:	10 92 c5 00 	sts	0x00C5, r1	; 0x8000c5 <__TEXT_REGION_LENGTH__+0x7f80c5>
	UBRR0L = (unsigned char)baud;
     ca0:	80 93 c4 00 	sts	0x00C4, r24	; 0x8000c4 <__TEXT_REGION_LENGTH__+0x7f80c4>
	
	//TX Enable
	UCSR0B |= (1<<TXEN0);
     ca4:	80 81       	ld	r24, Z
     ca6:	88 60       	ori	r24, 0x08	; 8
     ca8:	80 83       	st	Z, r24
	//RX Enable
	UCSR0B |= (1<<RXEN0);
     caa:	80 81       	ld	r24, Z
     cac:	80 61       	ori	r24, 0x10	; 16
     cae:	80 83       	st	Z, r24
     cb0:	08 95       	ret

00000cb2 <UART_TX_Interrupt_Enable>:
/*
	UART_TX_Interrupt_Enable: 
		Activa las interrupciones de transmision.
*/
void UART_TX_Interrupt_Enable(void){
	UCSR0B |= (1<<UDRIE0);
     cb2:	e1 ec       	ldi	r30, 0xC1	; 193
     cb4:	f0 e0       	ldi	r31, 0x00	; 0
     cb6:	80 81       	ld	r24, Z
     cb8:	80 62       	ori	r24, 0x20	; 32
     cba:	80 83       	st	Z, r24
     cbc:	08 95       	ret

00000cbe <UART_Write_Char_To_Buffer>:
		Si el indice de lectura del buffer TX es menor a la longitud total del buffer, se escribe en este el char
		pasado por parametro. Luego deshabilita las interrupciones por transmision.
*/
void UART_Write_Char_To_Buffer(const char data){
	if (TXindice_escritura < TX_BUFFER_LENGTH){ 
		TX_buffer [TXindice_escritura] = data;
     cbe:	90 91 25 02 	lds	r25, 0x0225	; 0x800225 <TXindice_escritura>
     cc2:	e9 2f       	mov	r30, r25
     cc4:	f0 e0       	ldi	r31, 0x00	; 0
     cc6:	e2 5d       	subi	r30, 0xD2	; 210
     cc8:	fd 4f       	sbci	r31, 0xFD	; 253
     cca:	80 83       	st	Z, r24
		TXindice_escritura++;
     ccc:	9f 5f       	subi	r25, 0xFF	; 255
     cce:	90 93 25 02 	sts	0x0225, r25	; 0x800225 <TXindice_escritura>
		UART_TX_Interrupt_Enable();
     cd2:	0e 94 59 06 	call	0xcb2	; 0xcb2 <UART_TX_Interrupt_Enable>
     cd6:	08 95       	ret

00000cd8 <UART_Write_String_To_Buffer>:
/*
	UART_Write_String_To_Buffer:
		Recibe un puntero a un string como parametro y transmite cada uno de los caracteres del mismo al buffer TX hasta 
		toparse con el fin de linea ('\0')
*/
void UART_Write_String_To_Buffer(const char* STR_PTR){
     cd8:	0f 93       	push	r16
     cda:	1f 93       	push	r17
     cdc:	cf 93       	push	r28
     cde:	8c 01       	movw	r16, r24
	char i = 0;
     ce0:	c0 e0       	ldi	r28, 0x00	; 0
	while (STR_PTR[i] != '\0'){
     ce2:	03 c0       	rjmp	.+6      	; 0xcea <UART_Write_String_To_Buffer+0x12>
		UART_Write_Char_To_Buffer (STR_PTR[i]);
     ce4:	0e 94 5f 06 	call	0xcbe	; 0xcbe <UART_Write_Char_To_Buffer>
		i++;
     ce8:	cf 5f       	subi	r28, 0xFF	; 255
		Recibe un puntero a un string como parametro y transmite cada uno de los caracteres del mismo al buffer TX hasta 
		toparse con el fin de linea ('\0')
*/
void UART_Write_String_To_Buffer(const char* STR_PTR){
	char i = 0;
	while (STR_PTR[i] != '\0'){
     cea:	f8 01       	movw	r30, r16
     cec:	ec 0f       	add	r30, r28
     cee:	f1 1d       	adc	r31, r1
     cf0:	80 81       	ld	r24, Z
     cf2:	81 11       	cpse	r24, r1
     cf4:	f7 cf       	rjmp	.-18     	; 0xce4 <UART_Write_String_To_Buffer+0xc>
		UART_Write_Char_To_Buffer (STR_PTR[i]);
		i++;
	}
}
     cf6:	cf 91       	pop	r28
     cf8:	1f 91       	pop	r17
     cfa:	0f 91       	pop	r16
     cfc:	08 95       	ret

00000cfe <UART_TX_Interrupt_Disable>:
	UART_TX_Interrupt_Enable:
		Desactiva las interrupciones de transmision.
*/
void UART_TX_Interrupt_Disable(void)
{
	UCSR0B &=~(1<<UDRIE0);
     cfe:	e1 ec       	ldi	r30, 0xC1	; 193
     d00:	f0 e0       	ldi	r31, 0x00	; 0
     d02:	80 81       	ld	r24, Z
     d04:	8f 7d       	andi	r24, 0xDF	; 223
     d06:	80 83       	st	Z, r24
     d08:	08 95       	ret

00000d0a <UART_RX_Interrupt_Enable>:
/*
	UART_TX_Interrupt_Enable:
		Activa las interrupciones de recepcion.
*/
void UART_RX_Interrupt_Enable(void){
	UCSR0B |= (1<<RXCIE0);
     d0a:	e1 ec       	ldi	r30, 0xC1	; 193
     d0c:	f0 e0       	ldi	r31, 0x00	; 0
     d0e:	80 81       	ld	r24, Z
     d10:	80 68       	ori	r24, 0x80	; 128
     d12:	80 83       	st	Z, r24
     d14:	08 95       	ret

00000d16 <UART_RX_Interrupt_Disable>:
/*
	UART_TX_Interrupt_Enable:
		Desactiva las interrupciones de recepcion.
*/
void UART_RX_Interrupt_Disable(void){
	UCSR0B &= ~(1<<RXCIE0);
     d16:	e1 ec       	ldi	r30, 0xC1	; 193
     d18:	f0 e0       	ldi	r31, 0x00	; 0
     d1a:	80 81       	ld	r24, Z
     d1c:	8f 77       	andi	r24, 0x7F	; 127
     d1e:	80 83       	st	Z, r24
     d20:	08 95       	ret

00000d22 <UART_Update>:
	UART_Update:
		Activa las interrupciones por recepcion y luego si esta activo el flag de recepcion se ejectuta el command update con el comando
		recibido, se reinicia el indice de escritura del buffer RX y se desactiva el flag de datos.
*/
void UART_Update(){
    UART_RX_Interrupt_Enable();
     d22:	0e 94 85 06 	call	0xd0a	; 0xd0a <UART_RX_Interrupt_Enable>
	if (FLAG_datos_recibidos) {
     d26:	80 91 27 02 	lds	r24, 0x0227	; 0x800227 <FLAG_datos_recibidos>
     d2a:	88 23       	and	r24, r24
     d2c:	41 f0       	breq	.+16     	; 0xd3e <UART_Update+0x1c>
		MENU_Command_Update(RX_buffer);
     d2e:	8e e2       	ldi	r24, 0x2E	; 46
     d30:	93 e0       	ldi	r25, 0x03	; 3
     d32:	0e 94 2e 03 	call	0x65c	; 0x65c <MENU_Command_Update>
		RXindice_escritura = 0;
     d36:	10 92 24 02 	sts	0x0224, r1	; 0x800224 <RXindice_escritura>
		FLAG_datos_recibidos = 0;
     d3a:	10 92 27 02 	sts	0x0227, r1	; 0x800227 <FLAG_datos_recibidos>
     d3e:	08 95       	ret

00000d40 <__vector_19>:
/*
	Rutina de interrupcion de transmision:
		Transmite los datos almacenados en el buffer TX al registro UDR0 uno por uno, hasta toparse con el fin de linea.
*/
// Foreground - Consumidor, esperamos a que la tarea de background genere los datos y los transmisitmos
ISR(USART_UDRE_vect) {
     d40:	1f 92       	push	r1
     d42:	0f 92       	push	r0
     d44:	0f b6       	in	r0, 0x3f	; 63
     d46:	0f 92       	push	r0
     d48:	11 24       	eor	r1, r1
     d4a:	2f 93       	push	r18
     d4c:	3f 93       	push	r19
     d4e:	4f 93       	push	r20
     d50:	5f 93       	push	r21
     d52:	6f 93       	push	r22
     d54:	7f 93       	push	r23
     d56:	8f 93       	push	r24
     d58:	9f 93       	push	r25
     d5a:	af 93       	push	r26
     d5c:	bf 93       	push	r27
     d5e:	ef 93       	push	r30
     d60:	ff 93       	push	r31
	if (TXindice_lectura == TXindice_escritura) {
     d62:	80 91 26 02 	lds	r24, 0x0226	; 0x800226 <TXindice_lectura>
     d66:	90 91 25 02 	lds	r25, 0x0225	; 0x800225 <TXindice_escritura>
     d6a:	89 13       	cpse	r24, r25
     d6c:	06 c0       	rjmp	.+12     	; 0xd7a <__vector_19+0x3a>
		// Se han transmitido todos los datos en el buffer
		UCSR0B &= ~(1 << UDRIE0);  // Deshabilitar la interrupcin de registro de datos vaco
     d6e:	e1 ec       	ldi	r30, 0xC1	; 193
     d70:	f0 e0       	ldi	r31, 0x00	; 0
     d72:	80 81       	ld	r24, Z
     d74:	8f 7d       	andi	r24, 0xDF	; 223
     d76:	80 83       	st	Z, r24
     d78:	14 c0       	rjmp	.+40     	; 0xda2 <__vector_19+0x62>
		} else {
		if (TX_buffer[TXindice_lectura] != '\0') {
     d7a:	e8 2f       	mov	r30, r24
     d7c:	f0 e0       	ldi	r31, 0x00	; 0
     d7e:	e2 5d       	subi	r30, 0xD2	; 210
     d80:	fd 4f       	sbci	r31, 0xFD	; 253
     d82:	90 81       	ld	r25, Z
     d84:	99 23       	and	r25, r25
     d86:	31 f0       	breq	.+12     	; 0xd94 <__vector_19+0x54>
			UDR0 = TX_buffer[TXindice_lectura++];  // Enviar el siguiente carcter del buffer
     d88:	8f 5f       	subi	r24, 0xFF	; 255
     d8a:	80 93 26 02 	sts	0x0226, r24	; 0x800226 <TXindice_lectura>
     d8e:	90 93 c6 00 	sts	0x00C6, r25	; 0x8000c6 <__TEXT_REGION_LENGTH__+0x7f80c6>
     d92:	07 c0       	rjmp	.+14     	; 0xda2 <__vector_19+0x62>
			} else {
			// Fin de mensaje (carcter nulo '\0')
			UCSR0B &= ~(1 << UDRIE0);  // Deshabilitar la interrupcin de registro de datos vaco
     d94:	e1 ec       	ldi	r30, 0xC1	; 193
     d96:	f0 e0       	ldi	r31, 0x00	; 0
     d98:	80 81       	ld	r24, Z
     d9a:	8f 7d       	andi	r24, 0xDF	; 223
     d9c:	80 83       	st	Z, r24
			UART_TX_Interrupt_Disable();  // Habilitar interrupcin de recepcin USART
     d9e:	0e 94 7f 06 	call	0xcfe	; 0xcfe <UART_TX_Interrupt_Disable>
		}
	}
}
     da2:	ff 91       	pop	r31
     da4:	ef 91       	pop	r30
     da6:	bf 91       	pop	r27
     da8:	af 91       	pop	r26
     daa:	9f 91       	pop	r25
     dac:	8f 91       	pop	r24
     dae:	7f 91       	pop	r23
     db0:	6f 91       	pop	r22
     db2:	5f 91       	pop	r21
     db4:	4f 91       	pop	r20
     db6:	3f 91       	pop	r19
     db8:	2f 91       	pop	r18
     dba:	0f 90       	pop	r0
     dbc:	0f be       	out	0x3f, r0	; 63
     dbe:	0f 90       	pop	r0
     dc0:	1f 90       	pop	r1
     dc2:	18 95       	reti

00000dc4 <__vector_18>:

// Foreground - Productor
ISR(USART_RX_vect) {
     dc4:	1f 92       	push	r1
     dc6:	0f 92       	push	r0
     dc8:	0f b6       	in	r0, 0x3f	; 63
     dca:	0f 92       	push	r0
     dcc:	11 24       	eor	r1, r1
     dce:	2f 93       	push	r18
     dd0:	3f 93       	push	r19
     dd2:	4f 93       	push	r20
     dd4:	5f 93       	push	r21
     dd6:	6f 93       	push	r22
     dd8:	7f 93       	push	r23
     dda:	8f 93       	push	r24
     ddc:	9f 93       	push	r25
     dde:	af 93       	push	r26
     de0:	bf 93       	push	r27
     de2:	cf 93       	push	r28
     de4:	ef 93       	push	r30
     de6:	ff 93       	push	r31
	char aux = UDR0;
     de8:	c0 91 c6 00 	lds	r28, 0x00C6	; 0x8000c6 <__TEXT_REGION_LENGTH__+0x7f80c6>
	if ((aux != '\r') && (aux != '\n')){
     dec:	cd 30       	cpi	r28, 0x0D	; 13
     dee:	69 f0       	breq	.+26     	; 0xe0a <__vector_18+0x46>
     df0:	ca 30       	cpi	r28, 0x0A	; 10
     df2:	59 f0       	breq	.+22     	; 0xe0a <__vector_18+0x46>
		RX_buffer[RXindice_escritura] = aux;
     df4:	80 91 24 02 	lds	r24, 0x0224	; 0x800224 <RXindice_escritura>
     df8:	e8 2f       	mov	r30, r24
     dfa:	f0 e0       	ldi	r31, 0x00	; 0
     dfc:	e2 5d       	subi	r30, 0xD2	; 210
     dfe:	fc 4f       	sbci	r31, 0xFC	; 252
     e00:	c0 83       	st	Z, r28
		RXindice_escritura++;
     e02:	8f 5f       	subi	r24, 0xFF	; 255
     e04:	80 93 24 02 	sts	0x0224, r24	; 0x800224 <RXindice_escritura>
     e08:	1f c0       	rjmp	.+62     	; 0xe48 <__vector_18+0x84>
		}else{
		if (aux == '\r'){
     e0a:	cd 30       	cpi	r28, 0x0D	; 13
     e0c:	51 f4       	brne	.+20     	; 0xe22 <__vector_18+0x5e>
			RX_buffer[RXindice_escritura] = '\0';
     e0e:	80 91 24 02 	lds	r24, 0x0224	; 0x800224 <RXindice_escritura>
     e12:	e8 2f       	mov	r30, r24
     e14:	f0 e0       	ldi	r31, 0x00	; 0
     e16:	e2 5d       	subi	r30, 0xD2	; 210
     e18:	fc 4f       	sbci	r31, 0xFC	; 252
     e1a:	10 82       	st	Z, r1
			RXindice_escritura++;
     e1c:	8f 5f       	subi	r24, 0xFF	; 255
     e1e:	80 93 24 02 	sts	0x0224, r24	; 0x800224 <RXindice_escritura>
		}
		if (aux == '\n'){
     e22:	ca 30       	cpi	r28, 0x0A	; 10
     e24:	89 f4       	brne	.+34     	; 0xe48 <__vector_18+0x84>
			FLAG_datos_recibidos = 1;
     e26:	81 e0       	ldi	r24, 0x01	; 1
     e28:	80 93 27 02 	sts	0x0227, r24	; 0x800227 <FLAG_datos_recibidos>
			if (MENU_Compare_Command(RX_buffer, "STOP", 0)) RTTTL_set_flag_stop(1);
     e2c:	40 e0       	ldi	r20, 0x00	; 0
     e2e:	65 e0       	ldi	r22, 0x05	; 5
     e30:	71 e0       	ldi	r23, 0x01	; 1
     e32:	8e e2       	ldi	r24, 0x2E	; 46
     e34:	93 e0       	ldi	r25, 0x03	; 3
     e36:	0e 94 f7 02 	call	0x5ee	; 0x5ee <MENU_Compare_Command>
     e3a:	88 23       	and	r24, r24
     e3c:	19 f0       	breq	.+6      	; 0xe44 <__vector_18+0x80>
     e3e:	81 e0       	ldi	r24, 0x01	; 1
     e40:	0e 94 ed 03 	call	0x7da	; 0x7da <RTTTL_set_flag_stop>
			UART_RX_Interrupt_Disable();
     e44:	0e 94 8b 06 	call	0xd16	; 0xd16 <UART_RX_Interrupt_Disable>
		}
	}
	UART_Write_Char_To_Buffer(aux);
     e48:	8c 2f       	mov	r24, r28
     e4a:	0e 94 5f 06 	call	0xcbe	; 0xcbe <UART_Write_Char_To_Buffer>
     e4e:	ff 91       	pop	r31
     e50:	ef 91       	pop	r30
     e52:	cf 91       	pop	r28
     e54:	bf 91       	pop	r27
     e56:	af 91       	pop	r26
     e58:	9f 91       	pop	r25
     e5a:	8f 91       	pop	r24
     e5c:	7f 91       	pop	r23
     e5e:	6f 91       	pop	r22
     e60:	5f 91       	pop	r21
     e62:	4f 91       	pop	r20
     e64:	3f 91       	pop	r19
     e66:	2f 91       	pop	r18
     e68:	0f 90       	pop	r0
     e6a:	0f be       	out	0x3f, r0	; 63
     e6c:	0f 90       	pop	r0
     e6e:	1f 90       	pop	r1
     e70:	18 95       	reti

00000e72 <__divmodsi4>:
     e72:	05 2e       	mov	r0, r21
     e74:	97 fb       	bst	r25, 7
     e76:	1e f4       	brtc	.+6      	; 0xe7e <__divmodsi4+0xc>
     e78:	00 94       	com	r0
     e7a:	0e 94 50 07 	call	0xea0	; 0xea0 <__negsi2>
     e7e:	57 fd       	sbrc	r21, 7
     e80:	07 d0       	rcall	.+14     	; 0xe90 <__divmodsi4_neg2>
     e82:	0e 94 5e 07 	call	0xebc	; 0xebc <__udivmodsi4>
     e86:	07 fc       	sbrc	r0, 7
     e88:	03 d0       	rcall	.+6      	; 0xe90 <__divmodsi4_neg2>
     e8a:	4e f4       	brtc	.+18     	; 0xe9e <__divmodsi4_exit>
     e8c:	0c 94 50 07 	jmp	0xea0	; 0xea0 <__negsi2>

00000e90 <__divmodsi4_neg2>:
     e90:	50 95       	com	r21
     e92:	40 95       	com	r20
     e94:	30 95       	com	r19
     e96:	21 95       	neg	r18
     e98:	3f 4f       	sbci	r19, 0xFF	; 255
     e9a:	4f 4f       	sbci	r20, 0xFF	; 255
     e9c:	5f 4f       	sbci	r21, 0xFF	; 255

00000e9e <__divmodsi4_exit>:
     e9e:	08 95       	ret

00000ea0 <__negsi2>:
     ea0:	90 95       	com	r25
     ea2:	80 95       	com	r24
     ea4:	70 95       	com	r23
     ea6:	61 95       	neg	r22
     ea8:	7f 4f       	sbci	r23, 0xFF	; 255
     eaa:	8f 4f       	sbci	r24, 0xFF	; 255
     eac:	9f 4f       	sbci	r25, 0xFF	; 255
     eae:	08 95       	ret

00000eb0 <__tablejump2__>:
     eb0:	ee 0f       	add	r30, r30
     eb2:	ff 1f       	adc	r31, r31
     eb4:	05 90       	lpm	r0, Z+
     eb6:	f4 91       	lpm	r31, Z
     eb8:	e0 2d       	mov	r30, r0
     eba:	09 94       	ijmp

00000ebc <__udivmodsi4>:
     ebc:	a1 e2       	ldi	r26, 0x21	; 33
     ebe:	1a 2e       	mov	r1, r26
     ec0:	aa 1b       	sub	r26, r26
     ec2:	bb 1b       	sub	r27, r27
     ec4:	fd 01       	movw	r30, r26
     ec6:	0d c0       	rjmp	.+26     	; 0xee2 <__udivmodsi4_ep>

00000ec8 <__udivmodsi4_loop>:
     ec8:	aa 1f       	adc	r26, r26
     eca:	bb 1f       	adc	r27, r27
     ecc:	ee 1f       	adc	r30, r30
     ece:	ff 1f       	adc	r31, r31
     ed0:	a2 17       	cp	r26, r18
     ed2:	b3 07       	cpc	r27, r19
     ed4:	e4 07       	cpc	r30, r20
     ed6:	f5 07       	cpc	r31, r21
     ed8:	20 f0       	brcs	.+8      	; 0xee2 <__udivmodsi4_ep>
     eda:	a2 1b       	sub	r26, r18
     edc:	b3 0b       	sbc	r27, r19
     ede:	e4 0b       	sbc	r30, r20
     ee0:	f5 0b       	sbc	r31, r21

00000ee2 <__udivmodsi4_ep>:
     ee2:	66 1f       	adc	r22, r22
     ee4:	77 1f       	adc	r23, r23
     ee6:	88 1f       	adc	r24, r24
     ee8:	99 1f       	adc	r25, r25
     eea:	1a 94       	dec	r1
     eec:	69 f7       	brne	.-38     	; 0xec8 <__udivmodsi4_loop>
     eee:	60 95       	com	r22
     ef0:	70 95       	com	r23
     ef2:	80 95       	com	r24
     ef4:	90 95       	com	r25
     ef6:	9b 01       	movw	r18, r22
     ef8:	ac 01       	movw	r20, r24
     efa:	bd 01       	movw	r22, r26
     efc:	cf 01       	movw	r24, r30
     efe:	08 95       	ret

00000f00 <atoi>:
     f00:	fc 01       	movw	r30, r24
     f02:	88 27       	eor	r24, r24
     f04:	99 27       	eor	r25, r25
     f06:	e8 94       	clt
     f08:	21 91       	ld	r18, Z+
     f0a:	20 32       	cpi	r18, 0x20	; 32
     f0c:	e9 f3       	breq	.-6      	; 0xf08 <atoi+0x8>
     f0e:	29 30       	cpi	r18, 0x09	; 9
     f10:	10 f0       	brcs	.+4      	; 0xf16 <atoi+0x16>
     f12:	2e 30       	cpi	r18, 0x0E	; 14
     f14:	c8 f3       	brcs	.-14     	; 0xf08 <atoi+0x8>
     f16:	2b 32       	cpi	r18, 0x2B	; 43
     f18:	41 f0       	breq	.+16     	; 0xf2a <atoi+0x2a>
     f1a:	2d 32       	cpi	r18, 0x2D	; 45
     f1c:	39 f4       	brne	.+14     	; 0xf2c <atoi+0x2c>
     f1e:	68 94       	set
     f20:	04 c0       	rjmp	.+8      	; 0xf2a <atoi+0x2a>
     f22:	0e 94 a5 07 	call	0xf4a	; 0xf4a <__mulhi_const_10>
     f26:	82 0f       	add	r24, r18
     f28:	91 1d       	adc	r25, r1
     f2a:	21 91       	ld	r18, Z+
     f2c:	20 53       	subi	r18, 0x30	; 48
     f2e:	2a 30       	cpi	r18, 0x0A	; 10
     f30:	c0 f3       	brcs	.-16     	; 0xf22 <atoi+0x22>
     f32:	1e f4       	brtc	.+6      	; 0xf3a <atoi+0x3a>
     f34:	90 95       	com	r25
     f36:	81 95       	neg	r24
     f38:	9f 4f       	sbci	r25, 0xFF	; 255
     f3a:	08 95       	ret

00000f3c <strcpy_P>:
     f3c:	fb 01       	movw	r30, r22
     f3e:	dc 01       	movw	r26, r24
     f40:	05 90       	lpm	r0, Z+
     f42:	0d 92       	st	X+, r0
     f44:	00 20       	and	r0, r0
     f46:	e1 f7       	brne	.-8      	; 0xf40 <strcpy_P+0x4>
     f48:	08 95       	ret

00000f4a <__mulhi_const_10>:
     f4a:	7a e0       	ldi	r23, 0x0A	; 10
     f4c:	97 9f       	mul	r25, r23
     f4e:	90 2d       	mov	r25, r0
     f50:	87 9f       	mul	r24, r23
     f52:	80 2d       	mov	r24, r0
     f54:	91 0d       	add	r25, r1
     f56:	11 24       	eor	r1, r1
     f58:	08 95       	ret

00000f5a <sprintf>:
     f5a:	ae e0       	ldi	r26, 0x0E	; 14
     f5c:	b0 e0       	ldi	r27, 0x00	; 0
     f5e:	e3 eb       	ldi	r30, 0xB3	; 179
     f60:	f7 e0       	ldi	r31, 0x07	; 7
     f62:	0c 94 6e 0a 	jmp	0x14dc	; 0x14dc <__prologue_saves__+0x1c>
     f66:	0d 89       	ldd	r16, Y+21	; 0x15
     f68:	1e 89       	ldd	r17, Y+22	; 0x16
     f6a:	86 e0       	ldi	r24, 0x06	; 6
     f6c:	8c 83       	std	Y+4, r24	; 0x04
     f6e:	1a 83       	std	Y+2, r17	; 0x02
     f70:	09 83       	std	Y+1, r16	; 0x01
     f72:	8f ef       	ldi	r24, 0xFF	; 255
     f74:	9f e7       	ldi	r25, 0x7F	; 127
     f76:	9e 83       	std	Y+6, r25	; 0x06
     f78:	8d 83       	std	Y+5, r24	; 0x05
     f7a:	ae 01       	movw	r20, r28
     f7c:	47 5e       	subi	r20, 0xE7	; 231
     f7e:	5f 4f       	sbci	r21, 0xFF	; 255
     f80:	6f 89       	ldd	r22, Y+23	; 0x17
     f82:	78 8d       	ldd	r23, Y+24	; 0x18
     f84:	ce 01       	movw	r24, r28
     f86:	01 96       	adiw	r24, 0x01	; 1
     f88:	0e 94 cf 07 	call	0xf9e	; 0xf9e <vfprintf>
     f8c:	ef 81       	ldd	r30, Y+7	; 0x07
     f8e:	f8 85       	ldd	r31, Y+8	; 0x08
     f90:	e0 0f       	add	r30, r16
     f92:	f1 1f       	adc	r31, r17
     f94:	10 82       	st	Z, r1
     f96:	2e 96       	adiw	r28, 0x0e	; 14
     f98:	e4 e0       	ldi	r30, 0x04	; 4
     f9a:	0c 94 8a 0a 	jmp	0x1514	; 0x1514 <__epilogue_restores__+0x1c>

00000f9e <vfprintf>:
     f9e:	ab e0       	ldi	r26, 0x0B	; 11
     fa0:	b0 e0       	ldi	r27, 0x00	; 0
     fa2:	e5 ed       	ldi	r30, 0xD5	; 213
     fa4:	f7 e0       	ldi	r31, 0x07	; 7
     fa6:	0c 94 60 0a 	jmp	0x14c0	; 0x14c0 <__prologue_saves__>
     faa:	6c 01       	movw	r12, r24
     fac:	7b 01       	movw	r14, r22
     fae:	8a 01       	movw	r16, r20
     fb0:	fc 01       	movw	r30, r24
     fb2:	17 82       	std	Z+7, r1	; 0x07
     fb4:	16 82       	std	Z+6, r1	; 0x06
     fb6:	83 81       	ldd	r24, Z+3	; 0x03
     fb8:	81 ff       	sbrs	r24, 1
     fba:	cc c1       	rjmp	.+920    	; 0x1354 <vfprintf+0x3b6>
     fbc:	ce 01       	movw	r24, r28
     fbe:	01 96       	adiw	r24, 0x01	; 1
     fc0:	3c 01       	movw	r6, r24
     fc2:	f6 01       	movw	r30, r12
     fc4:	93 81       	ldd	r25, Z+3	; 0x03
     fc6:	f7 01       	movw	r30, r14
     fc8:	93 fd       	sbrc	r25, 3
     fca:	85 91       	lpm	r24, Z+
     fcc:	93 ff       	sbrs	r25, 3
     fce:	81 91       	ld	r24, Z+
     fd0:	7f 01       	movw	r14, r30
     fd2:	88 23       	and	r24, r24
     fd4:	09 f4       	brne	.+2      	; 0xfd8 <vfprintf+0x3a>
     fd6:	ba c1       	rjmp	.+884    	; 0x134c <vfprintf+0x3ae>
     fd8:	85 32       	cpi	r24, 0x25	; 37
     fda:	39 f4       	brne	.+14     	; 0xfea <vfprintf+0x4c>
     fdc:	93 fd       	sbrc	r25, 3
     fde:	85 91       	lpm	r24, Z+
     fe0:	93 ff       	sbrs	r25, 3
     fe2:	81 91       	ld	r24, Z+
     fe4:	7f 01       	movw	r14, r30
     fe6:	85 32       	cpi	r24, 0x25	; 37
     fe8:	29 f4       	brne	.+10     	; 0xff4 <vfprintf+0x56>
     fea:	b6 01       	movw	r22, r12
     fec:	90 e0       	ldi	r25, 0x00	; 0
     fee:	0e 94 c6 09 	call	0x138c	; 0x138c <fputc>
     ff2:	e7 cf       	rjmp	.-50     	; 0xfc2 <vfprintf+0x24>
     ff4:	91 2c       	mov	r9, r1
     ff6:	21 2c       	mov	r2, r1
     ff8:	31 2c       	mov	r3, r1
     ffa:	ff e1       	ldi	r31, 0x1F	; 31
     ffc:	f3 15       	cp	r31, r3
     ffe:	d8 f0       	brcs	.+54     	; 0x1036 <vfprintf+0x98>
    1000:	8b 32       	cpi	r24, 0x2B	; 43
    1002:	79 f0       	breq	.+30     	; 0x1022 <vfprintf+0x84>
    1004:	38 f4       	brcc	.+14     	; 0x1014 <vfprintf+0x76>
    1006:	80 32       	cpi	r24, 0x20	; 32
    1008:	79 f0       	breq	.+30     	; 0x1028 <vfprintf+0x8a>
    100a:	83 32       	cpi	r24, 0x23	; 35
    100c:	a1 f4       	brne	.+40     	; 0x1036 <vfprintf+0x98>
    100e:	23 2d       	mov	r18, r3
    1010:	20 61       	ori	r18, 0x10	; 16
    1012:	1d c0       	rjmp	.+58     	; 0x104e <vfprintf+0xb0>
    1014:	8d 32       	cpi	r24, 0x2D	; 45
    1016:	61 f0       	breq	.+24     	; 0x1030 <vfprintf+0x92>
    1018:	80 33       	cpi	r24, 0x30	; 48
    101a:	69 f4       	brne	.+26     	; 0x1036 <vfprintf+0x98>
    101c:	23 2d       	mov	r18, r3
    101e:	21 60       	ori	r18, 0x01	; 1
    1020:	16 c0       	rjmp	.+44     	; 0x104e <vfprintf+0xb0>
    1022:	83 2d       	mov	r24, r3
    1024:	82 60       	ori	r24, 0x02	; 2
    1026:	38 2e       	mov	r3, r24
    1028:	e3 2d       	mov	r30, r3
    102a:	e4 60       	ori	r30, 0x04	; 4
    102c:	3e 2e       	mov	r3, r30
    102e:	2a c0       	rjmp	.+84     	; 0x1084 <vfprintf+0xe6>
    1030:	f3 2d       	mov	r31, r3
    1032:	f8 60       	ori	r31, 0x08	; 8
    1034:	1d c0       	rjmp	.+58     	; 0x1070 <vfprintf+0xd2>
    1036:	37 fc       	sbrc	r3, 7
    1038:	2d c0       	rjmp	.+90     	; 0x1094 <vfprintf+0xf6>
    103a:	20 ed       	ldi	r18, 0xD0	; 208
    103c:	28 0f       	add	r18, r24
    103e:	2a 30       	cpi	r18, 0x0A	; 10
    1040:	40 f0       	brcs	.+16     	; 0x1052 <vfprintf+0xb4>
    1042:	8e 32       	cpi	r24, 0x2E	; 46
    1044:	b9 f4       	brne	.+46     	; 0x1074 <vfprintf+0xd6>
    1046:	36 fc       	sbrc	r3, 6
    1048:	81 c1       	rjmp	.+770    	; 0x134c <vfprintf+0x3ae>
    104a:	23 2d       	mov	r18, r3
    104c:	20 64       	ori	r18, 0x40	; 64
    104e:	32 2e       	mov	r3, r18
    1050:	19 c0       	rjmp	.+50     	; 0x1084 <vfprintf+0xe6>
    1052:	36 fe       	sbrs	r3, 6
    1054:	06 c0       	rjmp	.+12     	; 0x1062 <vfprintf+0xc4>
    1056:	8a e0       	ldi	r24, 0x0A	; 10
    1058:	98 9e       	mul	r9, r24
    105a:	20 0d       	add	r18, r0
    105c:	11 24       	eor	r1, r1
    105e:	92 2e       	mov	r9, r18
    1060:	11 c0       	rjmp	.+34     	; 0x1084 <vfprintf+0xe6>
    1062:	ea e0       	ldi	r30, 0x0A	; 10
    1064:	2e 9e       	mul	r2, r30
    1066:	20 0d       	add	r18, r0
    1068:	11 24       	eor	r1, r1
    106a:	22 2e       	mov	r2, r18
    106c:	f3 2d       	mov	r31, r3
    106e:	f0 62       	ori	r31, 0x20	; 32
    1070:	3f 2e       	mov	r3, r31
    1072:	08 c0       	rjmp	.+16     	; 0x1084 <vfprintf+0xe6>
    1074:	8c 36       	cpi	r24, 0x6C	; 108
    1076:	21 f4       	brne	.+8      	; 0x1080 <vfprintf+0xe2>
    1078:	83 2d       	mov	r24, r3
    107a:	80 68       	ori	r24, 0x80	; 128
    107c:	38 2e       	mov	r3, r24
    107e:	02 c0       	rjmp	.+4      	; 0x1084 <vfprintf+0xe6>
    1080:	88 36       	cpi	r24, 0x68	; 104
    1082:	41 f4       	brne	.+16     	; 0x1094 <vfprintf+0xf6>
    1084:	f7 01       	movw	r30, r14
    1086:	93 fd       	sbrc	r25, 3
    1088:	85 91       	lpm	r24, Z+
    108a:	93 ff       	sbrs	r25, 3
    108c:	81 91       	ld	r24, Z+
    108e:	7f 01       	movw	r14, r30
    1090:	81 11       	cpse	r24, r1
    1092:	b3 cf       	rjmp	.-154    	; 0xffa <vfprintf+0x5c>
    1094:	98 2f       	mov	r25, r24
    1096:	9f 7d       	andi	r25, 0xDF	; 223
    1098:	95 54       	subi	r25, 0x45	; 69
    109a:	93 30       	cpi	r25, 0x03	; 3
    109c:	28 f4       	brcc	.+10     	; 0x10a8 <vfprintf+0x10a>
    109e:	0c 5f       	subi	r16, 0xFC	; 252
    10a0:	1f 4f       	sbci	r17, 0xFF	; 255
    10a2:	9f e3       	ldi	r25, 0x3F	; 63
    10a4:	99 83       	std	Y+1, r25	; 0x01
    10a6:	0d c0       	rjmp	.+26     	; 0x10c2 <vfprintf+0x124>
    10a8:	83 36       	cpi	r24, 0x63	; 99
    10aa:	31 f0       	breq	.+12     	; 0x10b8 <vfprintf+0x11a>
    10ac:	83 37       	cpi	r24, 0x73	; 115
    10ae:	71 f0       	breq	.+28     	; 0x10cc <vfprintf+0x12e>
    10b0:	83 35       	cpi	r24, 0x53	; 83
    10b2:	09 f0       	breq	.+2      	; 0x10b6 <vfprintf+0x118>
    10b4:	59 c0       	rjmp	.+178    	; 0x1168 <vfprintf+0x1ca>
    10b6:	21 c0       	rjmp	.+66     	; 0x10fa <vfprintf+0x15c>
    10b8:	f8 01       	movw	r30, r16
    10ba:	80 81       	ld	r24, Z
    10bc:	89 83       	std	Y+1, r24	; 0x01
    10be:	0e 5f       	subi	r16, 0xFE	; 254
    10c0:	1f 4f       	sbci	r17, 0xFF	; 255
    10c2:	88 24       	eor	r8, r8
    10c4:	83 94       	inc	r8
    10c6:	91 2c       	mov	r9, r1
    10c8:	53 01       	movw	r10, r6
    10ca:	13 c0       	rjmp	.+38     	; 0x10f2 <vfprintf+0x154>
    10cc:	28 01       	movw	r4, r16
    10ce:	f2 e0       	ldi	r31, 0x02	; 2
    10d0:	4f 0e       	add	r4, r31
    10d2:	51 1c       	adc	r5, r1
    10d4:	f8 01       	movw	r30, r16
    10d6:	a0 80       	ld	r10, Z
    10d8:	b1 80       	ldd	r11, Z+1	; 0x01
    10da:	36 fe       	sbrs	r3, 6
    10dc:	03 c0       	rjmp	.+6      	; 0x10e4 <vfprintf+0x146>
    10de:	69 2d       	mov	r22, r9
    10e0:	70 e0       	ldi	r23, 0x00	; 0
    10e2:	02 c0       	rjmp	.+4      	; 0x10e8 <vfprintf+0x14a>
    10e4:	6f ef       	ldi	r22, 0xFF	; 255
    10e6:	7f ef       	ldi	r23, 0xFF	; 255
    10e8:	c5 01       	movw	r24, r10
    10ea:	0e 94 bb 09 	call	0x1376	; 0x1376 <strnlen>
    10ee:	4c 01       	movw	r8, r24
    10f0:	82 01       	movw	r16, r4
    10f2:	f3 2d       	mov	r31, r3
    10f4:	ff 77       	andi	r31, 0x7F	; 127
    10f6:	3f 2e       	mov	r3, r31
    10f8:	16 c0       	rjmp	.+44     	; 0x1126 <vfprintf+0x188>
    10fa:	28 01       	movw	r4, r16
    10fc:	22 e0       	ldi	r18, 0x02	; 2
    10fe:	42 0e       	add	r4, r18
    1100:	51 1c       	adc	r5, r1
    1102:	f8 01       	movw	r30, r16
    1104:	a0 80       	ld	r10, Z
    1106:	b1 80       	ldd	r11, Z+1	; 0x01
    1108:	36 fe       	sbrs	r3, 6
    110a:	03 c0       	rjmp	.+6      	; 0x1112 <vfprintf+0x174>
    110c:	69 2d       	mov	r22, r9
    110e:	70 e0       	ldi	r23, 0x00	; 0
    1110:	02 c0       	rjmp	.+4      	; 0x1116 <vfprintf+0x178>
    1112:	6f ef       	ldi	r22, 0xFF	; 255
    1114:	7f ef       	ldi	r23, 0xFF	; 255
    1116:	c5 01       	movw	r24, r10
    1118:	0e 94 b0 09 	call	0x1360	; 0x1360 <strnlen_P>
    111c:	4c 01       	movw	r8, r24
    111e:	f3 2d       	mov	r31, r3
    1120:	f0 68       	ori	r31, 0x80	; 128
    1122:	3f 2e       	mov	r3, r31
    1124:	82 01       	movw	r16, r4
    1126:	33 fc       	sbrc	r3, 3
    1128:	1b c0       	rjmp	.+54     	; 0x1160 <vfprintf+0x1c2>
    112a:	82 2d       	mov	r24, r2
    112c:	90 e0       	ldi	r25, 0x00	; 0
    112e:	88 16       	cp	r8, r24
    1130:	99 06       	cpc	r9, r25
    1132:	b0 f4       	brcc	.+44     	; 0x1160 <vfprintf+0x1c2>
    1134:	b6 01       	movw	r22, r12
    1136:	80 e2       	ldi	r24, 0x20	; 32
    1138:	90 e0       	ldi	r25, 0x00	; 0
    113a:	0e 94 c6 09 	call	0x138c	; 0x138c <fputc>
    113e:	2a 94       	dec	r2
    1140:	f4 cf       	rjmp	.-24     	; 0x112a <vfprintf+0x18c>
    1142:	f5 01       	movw	r30, r10
    1144:	37 fc       	sbrc	r3, 7
    1146:	85 91       	lpm	r24, Z+
    1148:	37 fe       	sbrs	r3, 7
    114a:	81 91       	ld	r24, Z+
    114c:	5f 01       	movw	r10, r30
    114e:	b6 01       	movw	r22, r12
    1150:	90 e0       	ldi	r25, 0x00	; 0
    1152:	0e 94 c6 09 	call	0x138c	; 0x138c <fputc>
    1156:	21 10       	cpse	r2, r1
    1158:	2a 94       	dec	r2
    115a:	21 e0       	ldi	r18, 0x01	; 1
    115c:	82 1a       	sub	r8, r18
    115e:	91 08       	sbc	r9, r1
    1160:	81 14       	cp	r8, r1
    1162:	91 04       	cpc	r9, r1
    1164:	71 f7       	brne	.-36     	; 0x1142 <vfprintf+0x1a4>
    1166:	e8 c0       	rjmp	.+464    	; 0x1338 <vfprintf+0x39a>
    1168:	84 36       	cpi	r24, 0x64	; 100
    116a:	11 f0       	breq	.+4      	; 0x1170 <vfprintf+0x1d2>
    116c:	89 36       	cpi	r24, 0x69	; 105
    116e:	41 f5       	brne	.+80     	; 0x11c0 <vfprintf+0x222>
    1170:	f8 01       	movw	r30, r16
    1172:	37 fe       	sbrs	r3, 7
    1174:	07 c0       	rjmp	.+14     	; 0x1184 <vfprintf+0x1e6>
    1176:	60 81       	ld	r22, Z
    1178:	71 81       	ldd	r23, Z+1	; 0x01
    117a:	82 81       	ldd	r24, Z+2	; 0x02
    117c:	93 81       	ldd	r25, Z+3	; 0x03
    117e:	0c 5f       	subi	r16, 0xFC	; 252
    1180:	1f 4f       	sbci	r17, 0xFF	; 255
    1182:	08 c0       	rjmp	.+16     	; 0x1194 <vfprintf+0x1f6>
    1184:	60 81       	ld	r22, Z
    1186:	71 81       	ldd	r23, Z+1	; 0x01
    1188:	07 2e       	mov	r0, r23
    118a:	00 0c       	add	r0, r0
    118c:	88 0b       	sbc	r24, r24
    118e:	99 0b       	sbc	r25, r25
    1190:	0e 5f       	subi	r16, 0xFE	; 254
    1192:	1f 4f       	sbci	r17, 0xFF	; 255
    1194:	f3 2d       	mov	r31, r3
    1196:	ff 76       	andi	r31, 0x6F	; 111
    1198:	3f 2e       	mov	r3, r31
    119a:	97 ff       	sbrs	r25, 7
    119c:	09 c0       	rjmp	.+18     	; 0x11b0 <vfprintf+0x212>
    119e:	90 95       	com	r25
    11a0:	80 95       	com	r24
    11a2:	70 95       	com	r23
    11a4:	61 95       	neg	r22
    11a6:	7f 4f       	sbci	r23, 0xFF	; 255
    11a8:	8f 4f       	sbci	r24, 0xFF	; 255
    11aa:	9f 4f       	sbci	r25, 0xFF	; 255
    11ac:	f0 68       	ori	r31, 0x80	; 128
    11ae:	3f 2e       	mov	r3, r31
    11b0:	2a e0       	ldi	r18, 0x0A	; 10
    11b2:	30 e0       	ldi	r19, 0x00	; 0
    11b4:	a3 01       	movw	r20, r6
    11b6:	0e 94 02 0a 	call	0x1404	; 0x1404 <__ultoa_invert>
    11ba:	88 2e       	mov	r8, r24
    11bc:	86 18       	sub	r8, r6
    11be:	45 c0       	rjmp	.+138    	; 0x124a <vfprintf+0x2ac>
    11c0:	85 37       	cpi	r24, 0x75	; 117
    11c2:	31 f4       	brne	.+12     	; 0x11d0 <vfprintf+0x232>
    11c4:	23 2d       	mov	r18, r3
    11c6:	2f 7e       	andi	r18, 0xEF	; 239
    11c8:	b2 2e       	mov	r11, r18
    11ca:	2a e0       	ldi	r18, 0x0A	; 10
    11cc:	30 e0       	ldi	r19, 0x00	; 0
    11ce:	25 c0       	rjmp	.+74     	; 0x121a <vfprintf+0x27c>
    11d0:	93 2d       	mov	r25, r3
    11d2:	99 7f       	andi	r25, 0xF9	; 249
    11d4:	b9 2e       	mov	r11, r25
    11d6:	8f 36       	cpi	r24, 0x6F	; 111
    11d8:	c1 f0       	breq	.+48     	; 0x120a <vfprintf+0x26c>
    11da:	18 f4       	brcc	.+6      	; 0x11e2 <vfprintf+0x244>
    11dc:	88 35       	cpi	r24, 0x58	; 88
    11de:	79 f0       	breq	.+30     	; 0x11fe <vfprintf+0x260>
    11e0:	b5 c0       	rjmp	.+362    	; 0x134c <vfprintf+0x3ae>
    11e2:	80 37       	cpi	r24, 0x70	; 112
    11e4:	19 f0       	breq	.+6      	; 0x11ec <vfprintf+0x24e>
    11e6:	88 37       	cpi	r24, 0x78	; 120
    11e8:	21 f0       	breq	.+8      	; 0x11f2 <vfprintf+0x254>
    11ea:	b0 c0       	rjmp	.+352    	; 0x134c <vfprintf+0x3ae>
    11ec:	e9 2f       	mov	r30, r25
    11ee:	e0 61       	ori	r30, 0x10	; 16
    11f0:	be 2e       	mov	r11, r30
    11f2:	b4 fe       	sbrs	r11, 4
    11f4:	0d c0       	rjmp	.+26     	; 0x1210 <vfprintf+0x272>
    11f6:	fb 2d       	mov	r31, r11
    11f8:	f4 60       	ori	r31, 0x04	; 4
    11fa:	bf 2e       	mov	r11, r31
    11fc:	09 c0       	rjmp	.+18     	; 0x1210 <vfprintf+0x272>
    11fe:	34 fe       	sbrs	r3, 4
    1200:	0a c0       	rjmp	.+20     	; 0x1216 <vfprintf+0x278>
    1202:	29 2f       	mov	r18, r25
    1204:	26 60       	ori	r18, 0x06	; 6
    1206:	b2 2e       	mov	r11, r18
    1208:	06 c0       	rjmp	.+12     	; 0x1216 <vfprintf+0x278>
    120a:	28 e0       	ldi	r18, 0x08	; 8
    120c:	30 e0       	ldi	r19, 0x00	; 0
    120e:	05 c0       	rjmp	.+10     	; 0x121a <vfprintf+0x27c>
    1210:	20 e1       	ldi	r18, 0x10	; 16
    1212:	30 e0       	ldi	r19, 0x00	; 0
    1214:	02 c0       	rjmp	.+4      	; 0x121a <vfprintf+0x27c>
    1216:	20 e1       	ldi	r18, 0x10	; 16
    1218:	32 e0       	ldi	r19, 0x02	; 2
    121a:	f8 01       	movw	r30, r16
    121c:	b7 fe       	sbrs	r11, 7
    121e:	07 c0       	rjmp	.+14     	; 0x122e <vfprintf+0x290>
    1220:	60 81       	ld	r22, Z
    1222:	71 81       	ldd	r23, Z+1	; 0x01
    1224:	82 81       	ldd	r24, Z+2	; 0x02
    1226:	93 81       	ldd	r25, Z+3	; 0x03
    1228:	0c 5f       	subi	r16, 0xFC	; 252
    122a:	1f 4f       	sbci	r17, 0xFF	; 255
    122c:	06 c0       	rjmp	.+12     	; 0x123a <vfprintf+0x29c>
    122e:	60 81       	ld	r22, Z
    1230:	71 81       	ldd	r23, Z+1	; 0x01
    1232:	80 e0       	ldi	r24, 0x00	; 0
    1234:	90 e0       	ldi	r25, 0x00	; 0
    1236:	0e 5f       	subi	r16, 0xFE	; 254
    1238:	1f 4f       	sbci	r17, 0xFF	; 255
    123a:	a3 01       	movw	r20, r6
    123c:	0e 94 02 0a 	call	0x1404	; 0x1404 <__ultoa_invert>
    1240:	88 2e       	mov	r8, r24
    1242:	86 18       	sub	r8, r6
    1244:	fb 2d       	mov	r31, r11
    1246:	ff 77       	andi	r31, 0x7F	; 127
    1248:	3f 2e       	mov	r3, r31
    124a:	36 fe       	sbrs	r3, 6
    124c:	0d c0       	rjmp	.+26     	; 0x1268 <vfprintf+0x2ca>
    124e:	23 2d       	mov	r18, r3
    1250:	2e 7f       	andi	r18, 0xFE	; 254
    1252:	a2 2e       	mov	r10, r18
    1254:	89 14       	cp	r8, r9
    1256:	58 f4       	brcc	.+22     	; 0x126e <vfprintf+0x2d0>
    1258:	34 fe       	sbrs	r3, 4
    125a:	0b c0       	rjmp	.+22     	; 0x1272 <vfprintf+0x2d4>
    125c:	32 fc       	sbrc	r3, 2
    125e:	09 c0       	rjmp	.+18     	; 0x1272 <vfprintf+0x2d4>
    1260:	83 2d       	mov	r24, r3
    1262:	8e 7e       	andi	r24, 0xEE	; 238
    1264:	a8 2e       	mov	r10, r24
    1266:	05 c0       	rjmp	.+10     	; 0x1272 <vfprintf+0x2d4>
    1268:	b8 2c       	mov	r11, r8
    126a:	a3 2c       	mov	r10, r3
    126c:	03 c0       	rjmp	.+6      	; 0x1274 <vfprintf+0x2d6>
    126e:	b8 2c       	mov	r11, r8
    1270:	01 c0       	rjmp	.+2      	; 0x1274 <vfprintf+0x2d6>
    1272:	b9 2c       	mov	r11, r9
    1274:	a4 fe       	sbrs	r10, 4
    1276:	0f c0       	rjmp	.+30     	; 0x1296 <vfprintf+0x2f8>
    1278:	fe 01       	movw	r30, r28
    127a:	e8 0d       	add	r30, r8
    127c:	f1 1d       	adc	r31, r1
    127e:	80 81       	ld	r24, Z
    1280:	80 33       	cpi	r24, 0x30	; 48
    1282:	21 f4       	brne	.+8      	; 0x128c <vfprintf+0x2ee>
    1284:	9a 2d       	mov	r25, r10
    1286:	99 7e       	andi	r25, 0xE9	; 233
    1288:	a9 2e       	mov	r10, r25
    128a:	09 c0       	rjmp	.+18     	; 0x129e <vfprintf+0x300>
    128c:	a2 fe       	sbrs	r10, 2
    128e:	06 c0       	rjmp	.+12     	; 0x129c <vfprintf+0x2fe>
    1290:	b3 94       	inc	r11
    1292:	b3 94       	inc	r11
    1294:	04 c0       	rjmp	.+8      	; 0x129e <vfprintf+0x300>
    1296:	8a 2d       	mov	r24, r10
    1298:	86 78       	andi	r24, 0x86	; 134
    129a:	09 f0       	breq	.+2      	; 0x129e <vfprintf+0x300>
    129c:	b3 94       	inc	r11
    129e:	a3 fc       	sbrc	r10, 3
    12a0:	11 c0       	rjmp	.+34     	; 0x12c4 <vfprintf+0x326>
    12a2:	a0 fe       	sbrs	r10, 0
    12a4:	06 c0       	rjmp	.+12     	; 0x12b2 <vfprintf+0x314>
    12a6:	b2 14       	cp	r11, r2
    12a8:	88 f4       	brcc	.+34     	; 0x12cc <vfprintf+0x32e>
    12aa:	28 0c       	add	r2, r8
    12ac:	92 2c       	mov	r9, r2
    12ae:	9b 18       	sub	r9, r11
    12b0:	0e c0       	rjmp	.+28     	; 0x12ce <vfprintf+0x330>
    12b2:	b2 14       	cp	r11, r2
    12b4:	60 f4       	brcc	.+24     	; 0x12ce <vfprintf+0x330>
    12b6:	b6 01       	movw	r22, r12
    12b8:	80 e2       	ldi	r24, 0x20	; 32
    12ba:	90 e0       	ldi	r25, 0x00	; 0
    12bc:	0e 94 c6 09 	call	0x138c	; 0x138c <fputc>
    12c0:	b3 94       	inc	r11
    12c2:	f7 cf       	rjmp	.-18     	; 0x12b2 <vfprintf+0x314>
    12c4:	b2 14       	cp	r11, r2
    12c6:	18 f4       	brcc	.+6      	; 0x12ce <vfprintf+0x330>
    12c8:	2b 18       	sub	r2, r11
    12ca:	02 c0       	rjmp	.+4      	; 0x12d0 <vfprintf+0x332>
    12cc:	98 2c       	mov	r9, r8
    12ce:	21 2c       	mov	r2, r1
    12d0:	a4 fe       	sbrs	r10, 4
    12d2:	10 c0       	rjmp	.+32     	; 0x12f4 <vfprintf+0x356>
    12d4:	b6 01       	movw	r22, r12
    12d6:	80 e3       	ldi	r24, 0x30	; 48
    12d8:	90 e0       	ldi	r25, 0x00	; 0
    12da:	0e 94 c6 09 	call	0x138c	; 0x138c <fputc>
    12de:	a2 fe       	sbrs	r10, 2
    12e0:	17 c0       	rjmp	.+46     	; 0x1310 <vfprintf+0x372>
    12e2:	a1 fc       	sbrc	r10, 1
    12e4:	03 c0       	rjmp	.+6      	; 0x12ec <vfprintf+0x34e>
    12e6:	88 e7       	ldi	r24, 0x78	; 120
    12e8:	90 e0       	ldi	r25, 0x00	; 0
    12ea:	02 c0       	rjmp	.+4      	; 0x12f0 <vfprintf+0x352>
    12ec:	88 e5       	ldi	r24, 0x58	; 88
    12ee:	90 e0       	ldi	r25, 0x00	; 0
    12f0:	b6 01       	movw	r22, r12
    12f2:	0c c0       	rjmp	.+24     	; 0x130c <vfprintf+0x36e>
    12f4:	8a 2d       	mov	r24, r10
    12f6:	86 78       	andi	r24, 0x86	; 134
    12f8:	59 f0       	breq	.+22     	; 0x1310 <vfprintf+0x372>
    12fa:	a1 fe       	sbrs	r10, 1
    12fc:	02 c0       	rjmp	.+4      	; 0x1302 <vfprintf+0x364>
    12fe:	8b e2       	ldi	r24, 0x2B	; 43
    1300:	01 c0       	rjmp	.+2      	; 0x1304 <vfprintf+0x366>
    1302:	80 e2       	ldi	r24, 0x20	; 32
    1304:	a7 fc       	sbrc	r10, 7
    1306:	8d e2       	ldi	r24, 0x2D	; 45
    1308:	b6 01       	movw	r22, r12
    130a:	90 e0       	ldi	r25, 0x00	; 0
    130c:	0e 94 c6 09 	call	0x138c	; 0x138c <fputc>
    1310:	89 14       	cp	r8, r9
    1312:	38 f4       	brcc	.+14     	; 0x1322 <vfprintf+0x384>
    1314:	b6 01       	movw	r22, r12
    1316:	80 e3       	ldi	r24, 0x30	; 48
    1318:	90 e0       	ldi	r25, 0x00	; 0
    131a:	0e 94 c6 09 	call	0x138c	; 0x138c <fputc>
    131e:	9a 94       	dec	r9
    1320:	f7 cf       	rjmp	.-18     	; 0x1310 <vfprintf+0x372>
    1322:	8a 94       	dec	r8
    1324:	f3 01       	movw	r30, r6
    1326:	e8 0d       	add	r30, r8
    1328:	f1 1d       	adc	r31, r1
    132a:	80 81       	ld	r24, Z
    132c:	b6 01       	movw	r22, r12
    132e:	90 e0       	ldi	r25, 0x00	; 0
    1330:	0e 94 c6 09 	call	0x138c	; 0x138c <fputc>
    1334:	81 10       	cpse	r8, r1
    1336:	f5 cf       	rjmp	.-22     	; 0x1322 <vfprintf+0x384>
    1338:	22 20       	and	r2, r2
    133a:	09 f4       	brne	.+2      	; 0x133e <vfprintf+0x3a0>
    133c:	42 ce       	rjmp	.-892    	; 0xfc2 <vfprintf+0x24>
    133e:	b6 01       	movw	r22, r12
    1340:	80 e2       	ldi	r24, 0x20	; 32
    1342:	90 e0       	ldi	r25, 0x00	; 0
    1344:	0e 94 c6 09 	call	0x138c	; 0x138c <fputc>
    1348:	2a 94       	dec	r2
    134a:	f6 cf       	rjmp	.-20     	; 0x1338 <vfprintf+0x39a>
    134c:	f6 01       	movw	r30, r12
    134e:	86 81       	ldd	r24, Z+6	; 0x06
    1350:	97 81       	ldd	r25, Z+7	; 0x07
    1352:	02 c0       	rjmp	.+4      	; 0x1358 <vfprintf+0x3ba>
    1354:	8f ef       	ldi	r24, 0xFF	; 255
    1356:	9f ef       	ldi	r25, 0xFF	; 255
    1358:	2b 96       	adiw	r28, 0x0b	; 11
    135a:	e2 e1       	ldi	r30, 0x12	; 18
    135c:	0c 94 7c 0a 	jmp	0x14f8	; 0x14f8 <__epilogue_restores__>

00001360 <strnlen_P>:
    1360:	fc 01       	movw	r30, r24
    1362:	05 90       	lpm	r0, Z+
    1364:	61 50       	subi	r22, 0x01	; 1
    1366:	70 40       	sbci	r23, 0x00	; 0
    1368:	01 10       	cpse	r0, r1
    136a:	d8 f7       	brcc	.-10     	; 0x1362 <strnlen_P+0x2>
    136c:	80 95       	com	r24
    136e:	90 95       	com	r25
    1370:	8e 0f       	add	r24, r30
    1372:	9f 1f       	adc	r25, r31
    1374:	08 95       	ret

00001376 <strnlen>:
    1376:	fc 01       	movw	r30, r24
    1378:	61 50       	subi	r22, 0x01	; 1
    137a:	70 40       	sbci	r23, 0x00	; 0
    137c:	01 90       	ld	r0, Z+
    137e:	01 10       	cpse	r0, r1
    1380:	d8 f7       	brcc	.-10     	; 0x1378 <strnlen+0x2>
    1382:	80 95       	com	r24
    1384:	90 95       	com	r25
    1386:	8e 0f       	add	r24, r30
    1388:	9f 1f       	adc	r25, r31
    138a:	08 95       	ret

0000138c <fputc>:
    138c:	0f 93       	push	r16
    138e:	1f 93       	push	r17
    1390:	cf 93       	push	r28
    1392:	df 93       	push	r29
    1394:	fb 01       	movw	r30, r22
    1396:	23 81       	ldd	r18, Z+3	; 0x03
    1398:	21 fd       	sbrc	r18, 1
    139a:	03 c0       	rjmp	.+6      	; 0x13a2 <fputc+0x16>
    139c:	8f ef       	ldi	r24, 0xFF	; 255
    139e:	9f ef       	ldi	r25, 0xFF	; 255
    13a0:	2c c0       	rjmp	.+88     	; 0x13fa <fputc+0x6e>
    13a2:	22 ff       	sbrs	r18, 2
    13a4:	16 c0       	rjmp	.+44     	; 0x13d2 <fputc+0x46>
    13a6:	46 81       	ldd	r20, Z+6	; 0x06
    13a8:	57 81       	ldd	r21, Z+7	; 0x07
    13aa:	24 81       	ldd	r18, Z+4	; 0x04
    13ac:	35 81       	ldd	r19, Z+5	; 0x05
    13ae:	42 17       	cp	r20, r18
    13b0:	53 07       	cpc	r21, r19
    13b2:	44 f4       	brge	.+16     	; 0x13c4 <fputc+0x38>
    13b4:	a0 81       	ld	r26, Z
    13b6:	b1 81       	ldd	r27, Z+1	; 0x01
    13b8:	9d 01       	movw	r18, r26
    13ba:	2f 5f       	subi	r18, 0xFF	; 255
    13bc:	3f 4f       	sbci	r19, 0xFF	; 255
    13be:	31 83       	std	Z+1, r19	; 0x01
    13c0:	20 83       	st	Z, r18
    13c2:	8c 93       	st	X, r24
    13c4:	26 81       	ldd	r18, Z+6	; 0x06
    13c6:	37 81       	ldd	r19, Z+7	; 0x07
    13c8:	2f 5f       	subi	r18, 0xFF	; 255
    13ca:	3f 4f       	sbci	r19, 0xFF	; 255
    13cc:	37 83       	std	Z+7, r19	; 0x07
    13ce:	26 83       	std	Z+6, r18	; 0x06
    13d0:	14 c0       	rjmp	.+40     	; 0x13fa <fputc+0x6e>
    13d2:	8b 01       	movw	r16, r22
    13d4:	ec 01       	movw	r28, r24
    13d6:	fb 01       	movw	r30, r22
    13d8:	00 84       	ldd	r0, Z+8	; 0x08
    13da:	f1 85       	ldd	r31, Z+9	; 0x09
    13dc:	e0 2d       	mov	r30, r0
    13de:	09 95       	icall
    13e0:	89 2b       	or	r24, r25
    13e2:	e1 f6       	brne	.-72     	; 0x139c <fputc+0x10>
    13e4:	d8 01       	movw	r26, r16
    13e6:	16 96       	adiw	r26, 0x06	; 6
    13e8:	8d 91       	ld	r24, X+
    13ea:	9c 91       	ld	r25, X
    13ec:	17 97       	sbiw	r26, 0x07	; 7
    13ee:	01 96       	adiw	r24, 0x01	; 1
    13f0:	17 96       	adiw	r26, 0x07	; 7
    13f2:	9c 93       	st	X, r25
    13f4:	8e 93       	st	-X, r24
    13f6:	16 97       	sbiw	r26, 0x06	; 6
    13f8:	ce 01       	movw	r24, r28
    13fa:	df 91       	pop	r29
    13fc:	cf 91       	pop	r28
    13fe:	1f 91       	pop	r17
    1400:	0f 91       	pop	r16
    1402:	08 95       	ret

00001404 <__ultoa_invert>:
    1404:	fa 01       	movw	r30, r20
    1406:	aa 27       	eor	r26, r26
    1408:	28 30       	cpi	r18, 0x08	; 8
    140a:	51 f1       	breq	.+84     	; 0x1460 <__ultoa_invert+0x5c>
    140c:	20 31       	cpi	r18, 0x10	; 16
    140e:	81 f1       	breq	.+96     	; 0x1470 <__ultoa_invert+0x6c>
    1410:	e8 94       	clt
    1412:	6f 93       	push	r22
    1414:	6e 7f       	andi	r22, 0xFE	; 254
    1416:	6e 5f       	subi	r22, 0xFE	; 254
    1418:	7f 4f       	sbci	r23, 0xFF	; 255
    141a:	8f 4f       	sbci	r24, 0xFF	; 255
    141c:	9f 4f       	sbci	r25, 0xFF	; 255
    141e:	af 4f       	sbci	r26, 0xFF	; 255
    1420:	b1 e0       	ldi	r27, 0x01	; 1
    1422:	3e d0       	rcall	.+124    	; 0x14a0 <__ultoa_invert+0x9c>
    1424:	b4 e0       	ldi	r27, 0x04	; 4
    1426:	3c d0       	rcall	.+120    	; 0x14a0 <__ultoa_invert+0x9c>
    1428:	67 0f       	add	r22, r23
    142a:	78 1f       	adc	r23, r24
    142c:	89 1f       	adc	r24, r25
    142e:	9a 1f       	adc	r25, r26
    1430:	a1 1d       	adc	r26, r1
    1432:	68 0f       	add	r22, r24
    1434:	79 1f       	adc	r23, r25
    1436:	8a 1f       	adc	r24, r26
    1438:	91 1d       	adc	r25, r1
    143a:	a1 1d       	adc	r26, r1
    143c:	6a 0f       	add	r22, r26
    143e:	71 1d       	adc	r23, r1
    1440:	81 1d       	adc	r24, r1
    1442:	91 1d       	adc	r25, r1
    1444:	a1 1d       	adc	r26, r1
    1446:	20 d0       	rcall	.+64     	; 0x1488 <__ultoa_invert+0x84>
    1448:	09 f4       	brne	.+2      	; 0x144c <__ultoa_invert+0x48>
    144a:	68 94       	set
    144c:	3f 91       	pop	r19
    144e:	2a e0       	ldi	r18, 0x0A	; 10
    1450:	26 9f       	mul	r18, r22
    1452:	11 24       	eor	r1, r1
    1454:	30 19       	sub	r19, r0
    1456:	30 5d       	subi	r19, 0xD0	; 208
    1458:	31 93       	st	Z+, r19
    145a:	de f6       	brtc	.-74     	; 0x1412 <__ultoa_invert+0xe>
    145c:	cf 01       	movw	r24, r30
    145e:	08 95       	ret
    1460:	46 2f       	mov	r20, r22
    1462:	47 70       	andi	r20, 0x07	; 7
    1464:	40 5d       	subi	r20, 0xD0	; 208
    1466:	41 93       	st	Z+, r20
    1468:	b3 e0       	ldi	r27, 0x03	; 3
    146a:	0f d0       	rcall	.+30     	; 0x148a <__ultoa_invert+0x86>
    146c:	c9 f7       	brne	.-14     	; 0x1460 <__ultoa_invert+0x5c>
    146e:	f6 cf       	rjmp	.-20     	; 0x145c <__ultoa_invert+0x58>
    1470:	46 2f       	mov	r20, r22
    1472:	4f 70       	andi	r20, 0x0F	; 15
    1474:	40 5d       	subi	r20, 0xD0	; 208
    1476:	4a 33       	cpi	r20, 0x3A	; 58
    1478:	18 f0       	brcs	.+6      	; 0x1480 <__ultoa_invert+0x7c>
    147a:	49 5d       	subi	r20, 0xD9	; 217
    147c:	31 fd       	sbrc	r19, 1
    147e:	40 52       	subi	r20, 0x20	; 32
    1480:	41 93       	st	Z+, r20
    1482:	02 d0       	rcall	.+4      	; 0x1488 <__ultoa_invert+0x84>
    1484:	a9 f7       	brne	.-22     	; 0x1470 <__ultoa_invert+0x6c>
    1486:	ea cf       	rjmp	.-44     	; 0x145c <__ultoa_invert+0x58>
    1488:	b4 e0       	ldi	r27, 0x04	; 4
    148a:	a6 95       	lsr	r26
    148c:	97 95       	ror	r25
    148e:	87 95       	ror	r24
    1490:	77 95       	ror	r23
    1492:	67 95       	ror	r22
    1494:	ba 95       	dec	r27
    1496:	c9 f7       	brne	.-14     	; 0x148a <__ultoa_invert+0x86>
    1498:	00 97       	sbiw	r24, 0x00	; 0
    149a:	61 05       	cpc	r22, r1
    149c:	71 05       	cpc	r23, r1
    149e:	08 95       	ret
    14a0:	9b 01       	movw	r18, r22
    14a2:	ac 01       	movw	r20, r24
    14a4:	0a 2e       	mov	r0, r26
    14a6:	06 94       	lsr	r0
    14a8:	57 95       	ror	r21
    14aa:	47 95       	ror	r20
    14ac:	37 95       	ror	r19
    14ae:	27 95       	ror	r18
    14b0:	ba 95       	dec	r27
    14b2:	c9 f7       	brne	.-14     	; 0x14a6 <__ultoa_invert+0xa2>
    14b4:	62 0f       	add	r22, r18
    14b6:	73 1f       	adc	r23, r19
    14b8:	84 1f       	adc	r24, r20
    14ba:	95 1f       	adc	r25, r21
    14bc:	a0 1d       	adc	r26, r0
    14be:	08 95       	ret

000014c0 <__prologue_saves__>:
    14c0:	2f 92       	push	r2
    14c2:	3f 92       	push	r3
    14c4:	4f 92       	push	r4
    14c6:	5f 92       	push	r5
    14c8:	6f 92       	push	r6
    14ca:	7f 92       	push	r7
    14cc:	8f 92       	push	r8
    14ce:	9f 92       	push	r9
    14d0:	af 92       	push	r10
    14d2:	bf 92       	push	r11
    14d4:	cf 92       	push	r12
    14d6:	df 92       	push	r13
    14d8:	ef 92       	push	r14
    14da:	ff 92       	push	r15
    14dc:	0f 93       	push	r16
    14de:	1f 93       	push	r17
    14e0:	cf 93       	push	r28
    14e2:	df 93       	push	r29
    14e4:	cd b7       	in	r28, 0x3d	; 61
    14e6:	de b7       	in	r29, 0x3e	; 62
    14e8:	ca 1b       	sub	r28, r26
    14ea:	db 0b       	sbc	r29, r27
    14ec:	0f b6       	in	r0, 0x3f	; 63
    14ee:	f8 94       	cli
    14f0:	de bf       	out	0x3e, r29	; 62
    14f2:	0f be       	out	0x3f, r0	; 63
    14f4:	cd bf       	out	0x3d, r28	; 61
    14f6:	09 94       	ijmp

000014f8 <__epilogue_restores__>:
    14f8:	2a 88       	ldd	r2, Y+18	; 0x12
    14fa:	39 88       	ldd	r3, Y+17	; 0x11
    14fc:	48 88       	ldd	r4, Y+16	; 0x10
    14fe:	5f 84       	ldd	r5, Y+15	; 0x0f
    1500:	6e 84       	ldd	r6, Y+14	; 0x0e
    1502:	7d 84       	ldd	r7, Y+13	; 0x0d
    1504:	8c 84       	ldd	r8, Y+12	; 0x0c
    1506:	9b 84       	ldd	r9, Y+11	; 0x0b
    1508:	aa 84       	ldd	r10, Y+10	; 0x0a
    150a:	b9 84       	ldd	r11, Y+9	; 0x09
    150c:	c8 84       	ldd	r12, Y+8	; 0x08
    150e:	df 80       	ldd	r13, Y+7	; 0x07
    1510:	ee 80       	ldd	r14, Y+6	; 0x06
    1512:	fd 80       	ldd	r15, Y+5	; 0x05
    1514:	0c 81       	ldd	r16, Y+4	; 0x04
    1516:	1b 81       	ldd	r17, Y+3	; 0x03
    1518:	aa 81       	ldd	r26, Y+2	; 0x02
    151a:	b9 81       	ldd	r27, Y+1	; 0x01
    151c:	ce 0f       	add	r28, r30
    151e:	d1 1d       	adc	r29, r1
    1520:	0f b6       	in	r0, 0x3f	; 63
    1522:	f8 94       	cli
    1524:	de bf       	out	0x3e, r29	; 62
    1526:	0f be       	out	0x3f, r0	; 63
    1528:	cd bf       	out	0x3d, r28	; 61
    152a:	ed 01       	movw	r28, r26
    152c:	08 95       	ret

0000152e <_exit>:
    152e:	f8 94       	cli

00001530 <__stop_program>:
    1530:	ff cf       	rjmp	.-2      	; 0x1530 <__stop_program>
