
tp3-Entregable.elf:     file format elf32-avr

Sections:
Idx Name          Size      VMA       LMA       File off  Algn
  0 .data         0000014a  00800100  00000466  000004fa  2**0
                  CONTENTS, ALLOC, LOAD, DATA
  1 .text         00000466  00000000  00000000  00000094  2**1
                  CONTENTS, ALLOC, LOAD, READONLY, CODE
  2 .bss          00000112  0080024a  0080024a  00000644  2**0
                  ALLOC
  3 .comment      00000030  00000000  00000000  00000644  2**0
                  CONTENTS, READONLY
  4 .note.gnu.avr.deviceinfo 00000040  00000000  00000000  00000674  2**2
                  CONTENTS, READONLY
  5 .debug_aranges 00000110  00000000  00000000  000006b4  2**0
                  CONTENTS, READONLY, DEBUGGING
  6 .debug_info   00000f69  00000000  00000000  000007c4  2**0
                  CONTENTS, READONLY, DEBUGGING
  7 .debug_abbrev 000009d8  00000000  00000000  0000172d  2**0
                  CONTENTS, READONLY, DEBUGGING
  8 .debug_line   00000779  00000000  00000000  00002105  2**0
                  CONTENTS, READONLY, DEBUGGING
  9 .debug_frame  000002c4  00000000  00000000  00002880  2**2
                  CONTENTS, READONLY, DEBUGGING
 10 .debug_str    00000604  00000000  00000000  00002b44  2**0
                  CONTENTS, READONLY, DEBUGGING
 11 .debug_loc    00000523  00000000  00000000  00003148  2**0
                  CONTENTS, READONLY, DEBUGGING
 12 .debug_ranges 000000d0  00000000  00000000  0000366b  2**0
                  CONTENTS, READONLY, DEBUGGING

Disassembly of section .text:

00000000 <__vectors>:
   0:	0c 94 34 00 	jmp	0x68	; 0x68 <__ctors_end>
   4:	0c 94 51 00 	jmp	0xa2	; 0xa2 <__bad_interrupt>
   8:	0c 94 51 00 	jmp	0xa2	; 0xa2 <__bad_interrupt>
   c:	0c 94 51 00 	jmp	0xa2	; 0xa2 <__bad_interrupt>
  10:	0c 94 51 00 	jmp	0xa2	; 0xa2 <__bad_interrupt>
  14:	0c 94 51 00 	jmp	0xa2	; 0xa2 <__bad_interrupt>
  18:	0c 94 51 00 	jmp	0xa2	; 0xa2 <__bad_interrupt>
  1c:	0c 94 51 00 	jmp	0xa2	; 0xa2 <__bad_interrupt>
  20:	0c 94 51 00 	jmp	0xa2	; 0xa2 <__bad_interrupt>
  24:	0c 94 51 00 	jmp	0xa2	; 0xa2 <__bad_interrupt>
  28:	0c 94 51 00 	jmp	0xa2	; 0xa2 <__bad_interrupt>
  2c:	0c 94 51 00 	jmp	0xa2	; 0xa2 <__bad_interrupt>
  30:	0c 94 51 00 	jmp	0xa2	; 0xa2 <__bad_interrupt>
  34:	0c 94 51 00 	jmp	0xa2	; 0xa2 <__bad_interrupt>
  38:	0c 94 1d 01 	jmp	0x23a	; 0x23a <__vector_14>
  3c:	0c 94 51 00 	jmp	0xa2	; 0xa2 <__bad_interrupt>
  40:	0c 94 51 00 	jmp	0xa2	; 0xa2 <__bad_interrupt>
  44:	0c 94 51 00 	jmp	0xa2	; 0xa2 <__bad_interrupt>
  48:	0c 94 f0 01 	jmp	0x3e0	; 0x3e0 <__vector_18>
  4c:	0c 94 ae 01 	jmp	0x35c	; 0x35c <__vector_19>
  50:	0c 94 51 00 	jmp	0xa2	; 0xa2 <__bad_interrupt>
  54:	0c 94 51 00 	jmp	0xa2	; 0xa2 <__bad_interrupt>
  58:	0c 94 51 00 	jmp	0xa2	; 0xa2 <__bad_interrupt>
  5c:	0c 94 51 00 	jmp	0xa2	; 0xa2 <__bad_interrupt>
  60:	0c 94 51 00 	jmp	0xa2	; 0xa2 <__bad_interrupt>
  64:	0c 94 51 00 	jmp	0xa2	; 0xa2 <__bad_interrupt>

00000068 <__ctors_end>:
  68:	11 24       	eor	r1, r1
  6a:	1f be       	out	0x3f, r1	; 63
  6c:	cf ef       	ldi	r28, 0xFF	; 255
  6e:	d8 e0       	ldi	r29, 0x08	; 8
  70:	de bf       	out	0x3e, r29	; 62
  72:	cd bf       	out	0x3d, r28	; 61

00000074 <__do_copy_data>:
  74:	12 e0       	ldi	r17, 0x02	; 2
  76:	a0 e0       	ldi	r26, 0x00	; 0
  78:	b1 e0       	ldi	r27, 0x01	; 1
  7a:	e6 e6       	ldi	r30, 0x66	; 102
  7c:	f4 e0       	ldi	r31, 0x04	; 4
  7e:	02 c0       	rjmp	.+4      	; 0x84 <__do_copy_data+0x10>
  80:	05 90       	lpm	r0, Z+
  82:	0d 92       	st	X+, r0
  84:	aa 34       	cpi	r26, 0x4A	; 74
  86:	b1 07       	cpc	r27, r17
  88:	d9 f7       	brne	.-10     	; 0x80 <__do_copy_data+0xc>

0000008a <__do_clear_bss>:
  8a:	23 e0       	ldi	r18, 0x03	; 3
  8c:	aa e4       	ldi	r26, 0x4A	; 74
  8e:	b2 e0       	ldi	r27, 0x02	; 2
  90:	01 c0       	rjmp	.+2      	; 0x94 <.do_clear_bss_start>

00000092 <.do_clear_bss_loop>:
  92:	1d 92       	st	X+, r1

00000094 <.do_clear_bss_start>:
  94:	ac 35       	cpi	r26, 0x5C	; 92
  96:	b2 07       	cpc	r27, r18
  98:	e1 f7       	brne	.-8      	; 0x92 <.do_clear_bss_loop>
  9a:	0e 94 53 00 	call	0xa6	; 0xa6 <main>
  9e:	0c 94 31 02 	jmp	0x462	; 0x462 <_exit>

000000a2 <__bad_interrupt>:
  a2:	0c 94 00 00 	jmp	0	; 0x0 <__vectors>

000000a6 <main>:

#include "main.h"
uint8_t aux = 0;
void main(void){
	// Set baud rate to 9600
	UART_Init(BR9600);
  a6:	87 e6       	ldi	r24, 0x67	; 103
  a8:	0e 94 41 01 	call	0x282	; 0x282 <UART_Init>
	
	MENU_Show_Menu();
  ac:	0e 94 5d 00 	call	0xba	; 0xba <MENU_Show_Menu>
	
	SEOS_Init_Timer();	
  b0:	0e 94 f3 00 	call	0x1e6	; 0x1e6 <SEOS_Init_Timer>
	
	while (1){
		SEOS_Dispatch_Tasks();
  b4:	0e 94 10 01 	call	0x220	; 0x220 <SEOS_Dispatch_Tasks>
  b8:	fd cf       	rjmp	.-6      	; 0xb4 <main+0xe>

000000ba <MENU_Show_Menu>:
uint8_t SystemState = 0;

void MENU_Show_Menu(void)
{
	// El men칰 se escribe en el buffer de transmisi칩n
 	UART_Write_String_To_Buffer("Menu:\n\r");
  ba:	80 e0       	ldi	r24, 0x00	; 0
  bc:	91 e0       	ldi	r25, 0x01	; 1
  be:	0e 94 65 01 	call	0x2ca	; 0x2ca <UART_Write_String_To_Buffer>
    UART_Write_String_To_Buffer("	* PLAY: reproduce la cancion seleccionada\n\r");
  c2:	88 e0       	ldi	r24, 0x08	; 8
  c4:	91 e0       	ldi	r25, 0x01	; 1
  c6:	0e 94 65 01 	call	0x2ca	; 0x2ca <UART_Write_String_To_Buffer>
    UART_Write_String_To_Buffer("	* STOP: detiene la reproduccion del sonido en curso\n\r");
  ca:	85 e3       	ldi	r24, 0x35	; 53
  cc:	91 e0       	ldi	r25, 0x01	; 1
  ce:	0e 94 65 01 	call	0x2ca	; 0x2ca <UART_Write_String_To_Buffer>
    UART_Write_String_To_Buffer("	* NUM: numero de cancion a seleccionar de la lista [1 a N]\n\r");
  d2:	8c e6       	ldi	r24, 0x6C	; 108
  d4:	91 e0       	ldi	r25, 0x01	; 1
  d6:	0e 94 65 01 	call	0x2ca	; 0x2ca <UART_Write_String_To_Buffer>
    UART_Write_String_To_Buffer("	* RESET: reinicia el sistema al estado inicial\n\r");
  da:	8a ea       	ldi	r24, 0xAA	; 170
  dc:	91 e0       	ldi	r25, 0x01	; 1
  de:	0e 94 65 01 	call	0x2ca	; 0x2ca <UART_Write_String_To_Buffer>
  e2:	08 95       	ret

000000e4 <MENU_Command_Update>:
}
 
void MENU_Command_Update(const char * RX_buffer)
{
  e4:	0f 93       	push	r16
  e6:	1f 93       	push	r17
  e8:	cf 93       	push	r28
  ea:	df 93       	push	r29
  ec:	cd b7       	in	r28, 0x3d	; 61
  ee:	de b7       	in	r29, 0x3e	; 62
  f0:	2a 97       	sbiw	r28, 0x0a	; 10
  f2:	0f b6       	in	r0, 0x3f	; 63
  f4:	f8 94       	cli
  f6:	de bf       	out	0x3e, r29	; 62
  f8:	0f be       	out	0x3f, r0	; 63
  fa:	cd bf       	out	0x3d, r28	; 61
  fc:	8c 01       	movw	r16, r24
	char comando[10];
	memcpy(comando, RX_buffer, 10);
  fe:	8a e0       	ldi	r24, 0x0A	; 10
 100:	f8 01       	movw	r30, r16
 102:	de 01       	movw	r26, r28
 104:	11 96       	adiw	r26, 0x01	; 1
 106:	01 90       	ld	r0, Z+
 108:	0d 92       	st	X+, r0
 10a:	8a 95       	dec	r24
 10c:	e1 f7       	brne	.-8      	; 0x106 <MENU_Command_Update+0x22>
	if (!strcmp(RX_buffer,"PLAY")) SystemState = ESTADO_PLAY;
 10e:	6c ed       	ldi	r22, 0xDC	; 220
 110:	71 e0       	ldi	r23, 0x01	; 1
 112:	c8 01       	movw	r24, r16
 114:	0e 94 28 02 	call	0x450	; 0x450 <strcmp>
 118:	89 2b       	or	r24, r25
 11a:	21 f4       	brne	.+8      	; 0x124 <MENU_Command_Update+0x40>
 11c:	81 e0       	ldi	r24, 0x01	; 1
 11e:	80 93 4a 02 	sts	0x024A, r24	; 0x80024a <__data_end>
 122:	25 c0       	rjmp	.+74     	; 0x16e <MENU_Command_Update+0x8a>
	else if (!strcmp(RX_buffer,"STOP")) SystemState = ESTADO_STOP;
 124:	61 ee       	ldi	r22, 0xE1	; 225
 126:	71 e0       	ldi	r23, 0x01	; 1
 128:	c8 01       	movw	r24, r16
 12a:	0e 94 28 02 	call	0x450	; 0x450 <strcmp>
 12e:	89 2b       	or	r24, r25
 130:	21 f4       	brne	.+8      	; 0x13a <MENU_Command_Update+0x56>
 132:	82 e0       	ldi	r24, 0x02	; 2
 134:	80 93 4a 02 	sts	0x024A, r24	; 0x80024a <__data_end>
 138:	1a c0       	rjmp	.+52     	; 0x16e <MENU_Command_Update+0x8a>
	else if (!strcmp(RX_buffer,"NUM")) SystemState = ESTADO_NUM;
 13a:	66 ee       	ldi	r22, 0xE6	; 230
 13c:	71 e0       	ldi	r23, 0x01	; 1
 13e:	c8 01       	movw	r24, r16
 140:	0e 94 28 02 	call	0x450	; 0x450 <strcmp>
 144:	89 2b       	or	r24, r25
 146:	21 f4       	brne	.+8      	; 0x150 <MENU_Command_Update+0x6c>
 148:	83 e0       	ldi	r24, 0x03	; 3
 14a:	80 93 4a 02 	sts	0x024A, r24	; 0x80024a <__data_end>
 14e:	0f c0       	rjmp	.+30     	; 0x16e <MENU_Command_Update+0x8a>
	else if (!strcmp(RX_buffer,"RESET")) SystemState = ESTADO_RESET;
 150:	6a ee       	ldi	r22, 0xEA	; 234
 152:	71 e0       	ldi	r23, 0x01	; 1
 154:	c8 01       	movw	r24, r16
 156:	0e 94 28 02 	call	0x450	; 0x450 <strcmp>
 15a:	89 2b       	or	r24, r25
 15c:	21 f4       	brne	.+8      	; 0x166 <MENU_Command_Update+0x82>
 15e:	84 e0       	ldi	r24, 0x04	; 4
 160:	80 93 4a 02 	sts	0x024A, r24	; 0x80024a <__data_end>
 164:	04 c0       	rjmp	.+8      	; 0x16e <MENU_Command_Update+0x8a>
	else {
		UART_Write_String_To_Buffer("\n	Comando no valido.\n\r");
 166:	80 ef       	ldi	r24, 0xF0	; 240
 168:	91 e0       	ldi	r25, 0x01	; 1
 16a:	0e 94 65 01 	call	0x2ca	; 0x2ca <UART_Write_String_To_Buffer>
	}
	UART_Write_String_To_Buffer(comando);
 16e:	ce 01       	movw	r24, r28
 170:	01 96       	adiw	r24, 0x01	; 1
 172:	0e 94 65 01 	call	0x2ca	; 0x2ca <UART_Write_String_To_Buffer>
}
 176:	2a 96       	adiw	r28, 0x0a	; 10
 178:	0f b6       	in	r0, 0x3f	; 63
 17a:	f8 94       	cli
 17c:	de bf       	out	0x3e, r29	; 62
 17e:	0f be       	out	0x3f, r0	; 63
 180:	cd bf       	out	0x3d, r28	; 61
 182:	df 91       	pop	r29
 184:	cf 91       	pop	r28
 186:	1f 91       	pop	r17
 188:	0f 91       	pop	r16
 18a:	08 95       	ret

0000018c <MENU_Perform_Task>:

void MENU_Perform_Task()
{
    switch (SystemState)
 18c:	80 91 4a 02 	lds	r24, 0x024A	; 0x80024a <__data_end>
 190:	82 30       	cpi	r24, 0x02	; 2
 192:	89 f0       	breq	.+34     	; 0x1b6 <MENU_Perform_Task+0x2a>
 194:	18 f4       	brcc	.+6      	; 0x19c <MENU_Perform_Task+0x10>
 196:	81 30       	cpi	r24, 0x01	; 1
 198:	31 f0       	breq	.+12     	; 0x1a6 <MENU_Perform_Task+0x1a>
 19a:	08 95       	ret
 19c:	83 30       	cpi	r24, 0x03	; 3
 19e:	99 f0       	breq	.+38     	; 0x1c6 <MENU_Perform_Task+0x3a>
 1a0:	84 30       	cpi	r24, 0x04	; 4
 1a2:	c9 f0       	breq	.+50     	; 0x1d6 <MENU_Perform_Task+0x4a>
 1a4:	08 95       	ret
    {
    case ESTADO_PLAY:
    {
        UART_Write_String_To_Buffer("\n	Estado play\n\r");
 1a6:	87 e0       	ldi	r24, 0x07	; 7
 1a8:	92 e0       	ldi	r25, 0x02	; 2
 1aa:	0e 94 65 01 	call	0x2ca	; 0x2ca <UART_Write_String_To_Buffer>
		SystemState = -1;
 1ae:	8f ef       	ldi	r24, 0xFF	; 255
 1b0:	80 93 4a 02 	sts	0x024A, r24	; 0x80024a <__data_end>
		break;
 1b4:	08 95       	ret
    }
    case ESTADO_STOP:
    {
		UART_Write_String_To_Buffer("\n	estado stop\n\r");
 1b6:	87 e1       	ldi	r24, 0x17	; 23
 1b8:	92 e0       	ldi	r25, 0x02	; 2
 1ba:	0e 94 65 01 	call	0x2ca	; 0x2ca <UART_Write_String_To_Buffer>
		SystemState = -1;
 1be:	8f ef       	ldi	r24, 0xFF	; 255
 1c0:	80 93 4a 02 	sts	0x024A, r24	; 0x80024a <__data_end>
        break;
 1c4:	08 95       	ret
    }
	case ESTADO_NUM:
	{
		UART_Write_String_To_Buffer("\n	estado num \n\r");
 1c6:	87 e2       	ldi	r24, 0x27	; 39
 1c8:	92 e0       	ldi	r25, 0x02	; 2
 1ca:	0e 94 65 01 	call	0x2ca	; 0x2ca <UART_Write_String_To_Buffer>
		SystemState = -1;
 1ce:	8f ef       	ldi	r24, 0xFF	; 255
 1d0:	80 93 4a 02 	sts	0x024A, r24	; 0x80024a <__data_end>
		break;
 1d4:	08 95       	ret
	}
	case ESTADO_RESET:
	{
		UART_Write_String_To_Buffer("\n	estado reset.\n\r");
 1d6:	87 e3       	ldi	r24, 0x37	; 55
 1d8:	92 e0       	ldi	r25, 0x02	; 2
 1da:	0e 94 65 01 	call	0x2ca	; 0x2ca <UART_Write_String_To_Buffer>
		SystemState = -1;
 1de:	8f ef       	ldi	r24, 0xFF	; 255
 1e0:	80 93 4a 02 	sts	0x024A, r24	; 0x80024a <__data_end>
 1e4:	08 95       	ret

000001e6 <SEOS_Init_Timer>:

void SEOS_Init_Timer() {
	// ------------------------ Timer 0 ------------------------
	
	// Configuro una interrupci칩n cada 1 mseg
	OCR0A = 248;			//124 para 8MHz y 248 para 16MHz
 1e6:	88 ef       	ldi	r24, 0xF8	; 248
 1e8:	87 bd       	out	0x27, r24	; 39
	TCCR0A = (1<<WGM01);   // Modo CTC, clock interno, prescalador 64
 1ea:	82 e0       	ldi	r24, 0x02	; 2
 1ec:	84 bd       	out	0x24, r24	; 36
	TCCR0B = (1<<CS01)|(1<<CS00);   // Modo CTC, clock interno, prescalador 64
 1ee:	93 e0       	ldi	r25, 0x03	; 3
 1f0:	95 bd       	out	0x25, r25	; 37
	TIMSK0 = (1<<OCIE0A);   // Habilito Timer 0 en modo de interrupci칩n de comparaci칩n
 1f2:	80 93 6e 00 	sts	0x006E, r24	; 0x80006e <__TEXT_REGION_LENGTH__+0x7f806e>
	
	
	// ------------------------ Timer 1 ------------------------
	
	TCCR1A|=(1<<COM1A0);// Configuro Timer1 para clk con prescaler P=1, modo CTC y salida por pin
 1f6:	e0 e8       	ldi	r30, 0x80	; 128
 1f8:	f0 e0       	ldi	r31, 0x00	; 0
 1fa:	80 81       	ld	r24, Z
 1fc:	80 64       	ori	r24, 0x40	; 64
 1fe:	80 83       	st	Z, r24
	TCCR1B|=(1<<WGM12)|(1<<CS10);
 200:	e1 e8       	ldi	r30, 0x81	; 129
 202:	f0 e0       	ldi	r31, 0x00	; 0
 204:	80 81       	ld	r24, Z
 206:	89 60       	ori	r24, 0x09	; 9
 208:	80 83       	st	Z, r24
	DDRB|=(1<<PINB1); // El PIN1 del PORTB ser치 el pin de salida
 20a:	84 b1       	in	r24, 0x04	; 4
 20c:	82 60       	ori	r24, 0x02	; 2
 20e:	84 b9       	out	0x04, r24	; 4


	//Habilito la m치scara de interrupciones
	
	sei();
 210:	78 94       	sei
 212:	08 95       	ret

00000214 <SEOS_Schedule_Tasks>:

uint8_t contador_UART = 0;
uint8_t error_uart = 0;

void SEOS_Schedule_Tasks() {
	UART_flag=1; //actualizar periferico
 214:	81 e0       	ldi	r24, 0x01	; 1
 216:	80 93 4d 02 	sts	0x024D, r24	; 0x80024d <UART_flag>
	MENU_flag=1; //actualizar menu
 21a:	80 93 4c 02 	sts	0x024C, r24	; 0x80024c <MENU_flag>
 21e:	08 95       	ret

00000220 <SEOS_Dispatch_Tasks>:
}

void SEOS_Dispatch_Tasks() {
	if (UART_flag) {
 220:	80 91 4d 02 	lds	r24, 0x024D	; 0x80024d <UART_flag>
 224:	88 23       	and	r24, r24
 226:	31 f0       	breq	.+12     	; 0x234 <SEOS_Dispatch_Tasks+0x14>
		UART_flag=0;
 228:	10 92 4d 02 	sts	0x024D, r1	; 0x80024d <UART_flag>
		UART_Update(&error_uart);
 22c:	8b e4       	ldi	r24, 0x4B	; 75
 22e:	92 e0       	ldi	r25, 0x02	; 2
 230:	0e 94 98 01 	call	0x330	; 0x330 <UART_Update>
	}
	MENU_Perform_Task();
 234:	0e 94 c6 00 	call	0x18c	; 0x18c <MENU_Perform_Task>
 238:	08 95       	ret

0000023a <__vector_14>:
}

// Control de la duraci涌쪑 del sonido
ISR (TIMER0_COMPA_vect) // ISR para la interrupci涌쪑 de comparaci涌쪑 del Timer 0
{
 23a:	1f 92       	push	r1
 23c:	0f 92       	push	r0
 23e:	0f b6       	in	r0, 0x3f	; 63
 240:	0f 92       	push	r0
 242:	11 24       	eor	r1, r1
 244:	2f 93       	push	r18
 246:	3f 93       	push	r19
 248:	4f 93       	push	r20
 24a:	5f 93       	push	r21
 24c:	6f 93       	push	r22
 24e:	7f 93       	push	r23
 250:	8f 93       	push	r24
 252:	9f 93       	push	r25
 254:	af 93       	push	r26
 256:	bf 93       	push	r27
 258:	ef 93       	push	r30
 25a:	ff 93       	push	r31
	SEOS_Schedule_Tasks();
 25c:	0e 94 0a 01 	call	0x214	; 0x214 <SEOS_Schedule_Tasks>
 260:	ff 91       	pop	r31
 262:	ef 91       	pop	r30
 264:	bf 91       	pop	r27
 266:	af 91       	pop	r26
 268:	9f 91       	pop	r25
 26a:	8f 91       	pop	r24
 26c:	7f 91       	pop	r23
 26e:	6f 91       	pop	r22
 270:	5f 91       	pop	r21
 272:	4f 91       	pop	r20
 274:	3f 91       	pop	r19
 276:	2f 91       	pop	r18
 278:	0f 90       	pop	r0
 27a:	0f be       	out	0x3f, r0	; 63
 27c:	0f 90       	pop	r0
 27e:	1f 90       	pop	r1
 280:	18 95       	reti

00000282 <UART_Init>:
	if (UCSR0A & (1 << RXC0)){
		*dato = UDR0;
		return 1;
	} else
	return 0;
}
 282:	e1 ec       	ldi	r30, 0xC1	; 193
 284:	f0 e0       	ldi	r31, 0x00	; 0
 286:	10 82       	st	Z, r1
 288:	96 e0       	ldi	r25, 0x06	; 6
 28a:	90 93 c2 00 	sts	0x00C2, r25	; 0x8000c2 <__TEXT_REGION_LENGTH__+0x7f80c2>
 28e:	10 92 c5 00 	sts	0x00C5, r1	; 0x8000c5 <__TEXT_REGION_LENGTH__+0x7f80c5>
 292:	80 93 c4 00 	sts	0x00C4, r24	; 0x8000c4 <__TEXT_REGION_LENGTH__+0x7f80c4>
 296:	80 81       	ld	r24, Z
 298:	88 60       	ori	r24, 0x08	; 8
 29a:	80 83       	st	Z, r24
 29c:	80 81       	ld	r24, Z
 29e:	80 61       	ori	r24, 0x10	; 16
 2a0:	80 83       	st	Z, r24
 2a2:	08 95       	ret

000002a4 <UART_TX_Interrupt_Enable>:

void UART_TX_Interrupt_Enable(void){
	UCSR0B |= (1<<UDRIE0);
 2a4:	e1 ec       	ldi	r30, 0xC1	; 193
 2a6:	f0 e0       	ldi	r31, 0x00	; 0
 2a8:	80 81       	ld	r24, Z
 2aa:	80 62       	ori	r24, 0x20	; 32
 2ac:	80 83       	st	Z, r24
 2ae:	08 95       	ret

000002b0 <UART_Write_Char_To_Buffer>:
}

void UART_Write_Char_To_Buffer (const char data, int * Error_code){
	
	if (TXindice_escritura < TX_BUFFER_LENGTH){ 
		TX_buffer [TXindice_escritura] = data;
 2b0:	90 91 4f 02 	lds	r25, 0x024F	; 0x80024f <TXindice_escritura>
 2b4:	e9 2f       	mov	r30, r25
 2b6:	f0 e0       	ldi	r31, 0x00	; 0
 2b8:	ee 5a       	subi	r30, 0xAE	; 174
 2ba:	fd 4f       	sbci	r31, 0xFD	; 253
 2bc:	80 83       	st	Z, r24
		TXindice_escritura++;
 2be:	9f 5f       	subi	r25, 0xFF	; 255
 2c0:	90 93 4f 02 	sts	0x024F, r25	; 0x80024f <TXindice_escritura>
		UART_TX_Interrupt_Enable();
 2c4:	0e 94 52 01 	call	0x2a4	; 0x2a4 <UART_TX_Interrupt_Enable>
 2c8:	08 95       	ret

000002ca <UART_Write_String_To_Buffer>:
		*Error_code = ERROR_UART_FULL_BUFF;
	}
	
}

void UART_Write_String_To_Buffer(const char* STR_PTR){
 2ca:	ef 92       	push	r14
 2cc:	ff 92       	push	r15
 2ce:	1f 93       	push	r17
 2d0:	cf 93       	push	r28
 2d2:	df 93       	push	r29
 2d4:	00 d0       	rcall	.+0      	; 0x2d6 <UART_Write_String_To_Buffer+0xc>
 2d6:	cd b7       	in	r28, 0x3d	; 61
 2d8:	de b7       	in	r29, 0x3e	; 62
 2da:	7c 01       	movw	r14, r24
	char i = 0;
	int aux = 0;
 2dc:	1a 82       	std	Y+2, r1	; 0x02
 2de:	19 82       	std	Y+1, r1	; 0x01
	}
	
}

void UART_Write_String_To_Buffer(const char* STR_PTR){
	char i = 0;
 2e0:	10 e0       	ldi	r17, 0x00	; 0
	int aux = 0;
	while (STR_PTR[i] != '\0'){
 2e2:	06 c0       	rjmp	.+12     	; 0x2f0 <UART_Write_String_To_Buffer+0x26>
		UART_Write_Char_To_Buffer (STR_PTR[i],&aux);
 2e4:	be 01       	movw	r22, r28
 2e6:	6f 5f       	subi	r22, 0xFF	; 255
 2e8:	7f 4f       	sbci	r23, 0xFF	; 255
 2ea:	0e 94 58 01 	call	0x2b0	; 0x2b0 <UART_Write_Char_To_Buffer>
		i++;
 2ee:	1f 5f       	subi	r17, 0xFF	; 255
}

void UART_Write_String_To_Buffer(const char* STR_PTR){
	char i = 0;
	int aux = 0;
	while (STR_PTR[i] != '\0'){
 2f0:	f7 01       	movw	r30, r14
 2f2:	e1 0f       	add	r30, r17
 2f4:	f1 1d       	adc	r31, r1
 2f6:	80 81       	ld	r24, Z
 2f8:	81 11       	cpse	r24, r1
 2fa:	f4 cf       	rjmp	.-24     	; 0x2e4 <UART_Write_String_To_Buffer+0x1a>
		UART_Write_Char_To_Buffer (STR_PTR[i],&aux);
		i++;
	}
}
 2fc:	0f 90       	pop	r0
 2fe:	0f 90       	pop	r0
 300:	df 91       	pop	r29
 302:	cf 91       	pop	r28
 304:	1f 91       	pop	r17
 306:	ff 90       	pop	r15
 308:	ef 90       	pop	r14
 30a:	08 95       	ret

0000030c <UART_TX_Interrupt_Disable>:
	UCSR0B |= (1<<UDRIE0);
}

void UART_TX_Interrupt_Disable(void)
{
	UCSR0B &=~(1<<UDRIE0);
 30c:	e1 ec       	ldi	r30, 0xC1	; 193
 30e:	f0 e0       	ldi	r31, 0x00	; 0
 310:	80 81       	ld	r24, Z
 312:	8f 7d       	andi	r24, 0xDF	; 223
 314:	80 83       	st	Z, r24
 316:	08 95       	ret

00000318 <UART_RX_Interrupt_Enable>:
}

void UART_RX_Interrupt_Enable(void){
	UCSR0B |= (1<<RXCIE0);
 318:	e1 ec       	ldi	r30, 0xC1	; 193
 31a:	f0 e0       	ldi	r31, 0x00	; 0
 31c:	80 81       	ld	r24, Z
 31e:	80 68       	ori	r24, 0x80	; 128
 320:	80 83       	st	Z, r24
 322:	08 95       	ret

00000324 <UART_RX_Interrupt_Disable>:
}

void UART_RX_Interrupt_Disable(void){
	UCSR0B &= ~(1<<RXCIE0);
 324:	e1 ec       	ldi	r30, 0xC1	; 193
 326:	f0 e0       	ldi	r31, 0x00	; 0
 328:	80 81       	ld	r24, Z
 32a:	8f 77       	andi	r24, 0x7F	; 127
 32c:	80 83       	st	Z, r24
 32e:	08 95       	ret

00000330 <UART_Update>:
}



void UART_Update(int * Error_code){
    UART_RX_Interrupt_Enable();
 330:	0e 94 8c 01 	call	0x318	; 0x318 <UART_RX_Interrupt_Enable>
	if (FLAG_datos_recibidos) {
 334:	80 91 51 02 	lds	r24, 0x0251	; 0x800251 <FLAG_datos_recibidos>
 338:	88 23       	and	r24, r24
 33a:	79 f0       	breq	.+30     	; 0x35a <UART_Update+0x2a>
		UART_Write_String_To_Buffer(RX_buffer);
 33c:	82 e5       	ldi	r24, 0x52	; 82
 33e:	93 e0       	ldi	r25, 0x03	; 3
 340:	0e 94 65 01 	call	0x2ca	; 0x2ca <UART_Write_String_To_Buffer>
		MENU_Command_Update(&RX_buffer, RXindice_escritura);
 344:	60 91 4e 02 	lds	r22, 0x024E	; 0x80024e <RXindice_escritura>
 348:	70 e0       	ldi	r23, 0x00	; 0
 34a:	82 e5       	ldi	r24, 0x52	; 82
 34c:	93 e0       	ldi	r25, 0x03	; 3
 34e:	0e 94 72 00 	call	0xe4	; 0xe4 <MENU_Command_Update>
		RXindice_escritura = 0;
 352:	10 92 4e 02 	sts	0x024E, r1	; 0x80024e <RXindice_escritura>
		FLAG_datos_recibidos = 0;
 356:	10 92 51 02 	sts	0x0251, r1	; 0x800251 <FLAG_datos_recibidos>
 35a:	08 95       	ret

0000035c <__vector_19>:
	}
}

// Foreground - Consumidor, esperamos a que la tarea de background genere los datos y los transmisitmos
ISR(USART_UDRE_vect) {
 35c:	1f 92       	push	r1
 35e:	0f 92       	push	r0
 360:	0f b6       	in	r0, 0x3f	; 63
 362:	0f 92       	push	r0
 364:	11 24       	eor	r1, r1
 366:	2f 93       	push	r18
 368:	3f 93       	push	r19
 36a:	4f 93       	push	r20
 36c:	5f 93       	push	r21
 36e:	6f 93       	push	r22
 370:	7f 93       	push	r23
 372:	8f 93       	push	r24
 374:	9f 93       	push	r25
 376:	af 93       	push	r26
 378:	bf 93       	push	r27
 37a:	ef 93       	push	r30
 37c:	ff 93       	push	r31
	if (TXindice_lectura == TXindice_escritura) {
 37e:	80 91 50 02 	lds	r24, 0x0250	; 0x800250 <TXindice_lectura>
 382:	90 91 4f 02 	lds	r25, 0x024F	; 0x80024f <TXindice_escritura>
 386:	89 13       	cpse	r24, r25
 388:	06 c0       	rjmp	.+12     	; 0x396 <__vector_19+0x3a>
		// Se han transmitido todos los datos en el buffer
		UCSR0B &= ~(1 << UDRIE0);  // Deshabilitar la interrupci蚤 de registro de datos vac癌
 38a:	e1 ec       	ldi	r30, 0xC1	; 193
 38c:	f0 e0       	ldi	r31, 0x00	; 0
 38e:	80 81       	ld	r24, Z
 390:	8f 7d       	andi	r24, 0xDF	; 223
 392:	80 83       	st	Z, r24
 394:	14 c0       	rjmp	.+40     	; 0x3be <__vector_19+0x62>
		} else {
		if (TX_buffer[TXindice_lectura] != '\0') {
 396:	e8 2f       	mov	r30, r24
 398:	f0 e0       	ldi	r31, 0x00	; 0
 39a:	ee 5a       	subi	r30, 0xAE	; 174
 39c:	fd 4f       	sbci	r31, 0xFD	; 253
 39e:	90 81       	ld	r25, Z
 3a0:	99 23       	and	r25, r25
 3a2:	31 f0       	breq	.+12     	; 0x3b0 <__vector_19+0x54>
			UDR0 = TX_buffer[TXindice_lectura++];  // Enviar el siguiente car徑ter del buffer
 3a4:	8f 5f       	subi	r24, 0xFF	; 255
 3a6:	80 93 50 02 	sts	0x0250, r24	; 0x800250 <TXindice_lectura>
 3aa:	90 93 c6 00 	sts	0x00C6, r25	; 0x8000c6 <__TEXT_REGION_LENGTH__+0x7f80c6>
 3ae:	07 c0       	rjmp	.+14     	; 0x3be <__vector_19+0x62>
			} else {
			// Fin de mensaje (car徑ter nulo '\0')
			UCSR0B &= ~(1 << UDRIE0);  // Deshabilitar la interrupci蚤 de registro de datos vac癌
 3b0:	e1 ec       	ldi	r30, 0xC1	; 193
 3b2:	f0 e0       	ldi	r31, 0x00	; 0
 3b4:	80 81       	ld	r24, Z
 3b6:	8f 7d       	andi	r24, 0xDF	; 223
 3b8:	80 83       	st	Z, r24
			UART_TX_Interrupt_Disable();  // Habilitar interrupci蚤 de recepci蚤 USART
 3ba:	0e 94 86 01 	call	0x30c	; 0x30c <UART_TX_Interrupt_Disable>
		}
	}
}
 3be:	ff 91       	pop	r31
 3c0:	ef 91       	pop	r30
 3c2:	bf 91       	pop	r27
 3c4:	af 91       	pop	r26
 3c6:	9f 91       	pop	r25
 3c8:	8f 91       	pop	r24
 3ca:	7f 91       	pop	r23
 3cc:	6f 91       	pop	r22
 3ce:	5f 91       	pop	r21
 3d0:	4f 91       	pop	r20
 3d2:	3f 91       	pop	r19
 3d4:	2f 91       	pop	r18
 3d6:	0f 90       	pop	r0
 3d8:	0f be       	out	0x3f, r0	; 63
 3da:	0f 90       	pop	r0
 3dc:	1f 90       	pop	r1
 3de:	18 95       	reti

000003e0 <__vector_18>:

// Foreground - Productor
ISR(USART_RX_vect) {
 3e0:	1f 92       	push	r1
 3e2:	0f 92       	push	r0
 3e4:	0f b6       	in	r0, 0x3f	; 63
 3e6:	0f 92       	push	r0
 3e8:	11 24       	eor	r1, r1
 3ea:	2f 93       	push	r18
 3ec:	3f 93       	push	r19
 3ee:	4f 93       	push	r20
 3f0:	5f 93       	push	r21
 3f2:	6f 93       	push	r22
 3f4:	7f 93       	push	r23
 3f6:	8f 93       	push	r24
 3f8:	9f 93       	push	r25
 3fa:	af 93       	push	r26
 3fc:	bf 93       	push	r27
 3fe:	ef 93       	push	r30
 400:	ff 93       	push	r31
	char aux = UDR0;
 402:	90 91 c6 00 	lds	r25, 0x00C6	; 0x8000c6 <__TEXT_REGION_LENGTH__+0x7f80c6>
	if ((aux != '\r') && (RXindice_escritura<RX_BUFFER_LENGTH)){
 406:	9d 30       	cpi	r25, 0x0D	; 13
 408:	69 f0       	breq	.+26     	; 0x424 <__EEPROM_REGION_LENGTH__+0x24>
 40a:	80 91 4e 02 	lds	r24, 0x024E	; 0x80024e <RXindice_escritura>
 40e:	8a 30       	cpi	r24, 0x0A	; 10
 410:	48 f4       	brcc	.+18     	; 0x424 <__EEPROM_REGION_LENGTH__+0x24>
		RX_buffer[RXindice_escritura] = aux;
 412:	e8 2f       	mov	r30, r24
 414:	f0 e0       	ldi	r31, 0x00	; 0
 416:	ee 5a       	subi	r30, 0xAE	; 174
 418:	fc 4f       	sbci	r31, 0xFC	; 252
 41a:	90 83       	st	Z, r25
		RXindice_escritura++;
 41c:	8f 5f       	subi	r24, 0xFF	; 255
 41e:	80 93 4e 02 	sts	0x024E, r24	; 0x80024e <RXindice_escritura>
 422:	05 c0       	rjmp	.+10     	; 0x42e <__EEPROM_REGION_LENGTH__+0x2e>
	}else{
		FLAG_datos_recibidos = 1;
 424:	81 e0       	ldi	r24, 0x01	; 1
 426:	80 93 51 02 	sts	0x0251, r24	; 0x800251 <FLAG_datos_recibidos>
		UART_RX_Interrupt_Disable();
 42a:	0e 94 92 01 	call	0x324	; 0x324 <UART_RX_Interrupt_Disable>
	}
 42e:	ff 91       	pop	r31
 430:	ef 91       	pop	r30
 432:	bf 91       	pop	r27
 434:	af 91       	pop	r26
 436:	9f 91       	pop	r25
 438:	8f 91       	pop	r24
 43a:	7f 91       	pop	r23
 43c:	6f 91       	pop	r22
 43e:	5f 91       	pop	r21
 440:	4f 91       	pop	r20
 442:	3f 91       	pop	r19
 444:	2f 91       	pop	r18
 446:	0f 90       	pop	r0
 448:	0f be       	out	0x3f, r0	; 63
 44a:	0f 90       	pop	r0
 44c:	1f 90       	pop	r1
 44e:	18 95       	reti

00000450 <strcmp>:
 450:	fb 01       	movw	r30, r22
 452:	dc 01       	movw	r26, r24
 454:	8d 91       	ld	r24, X+
 456:	01 90       	ld	r0, Z+
 458:	80 19       	sub	r24, r0
 45a:	01 10       	cpse	r0, r1
 45c:	d9 f3       	breq	.-10     	; 0x454 <strcmp+0x4>
 45e:	99 0b       	sbc	r25, r25
 460:	08 95       	ret

00000462 <_exit>:
 462:	f8 94       	cli

00000464 <__stop_program>:
 464:	ff cf       	rjmp	.-2      	; 0x464 <__stop_program>
